(dp0
S'cookies'
p1
(dp2
S'webwx_data_ticket'
p3
S'gSdTpUzP1wMEEAwkis1RZLCE'
p4
sS'wxuin'
p5
S'2384572421'
p6
sS'webwxuvid'
p7
S'cc7cbe166074ecdfb457ef674359d2c7f2a2efed68434bb5534f068cf257bd2f27c7d422fe965e92cfca2780598282e8'
p8
sS'webwx_auth_ticket'
p9
S'CIsBELvjq7MFGoABzZtXzerYQhF2aGlpZET8WGaLJH3z00sfwdY8c2LTs9+UnJCelzxhxkvUG/Xsj6sxPCKTsz9FJLj08Z1UACsA3V+EJvD1ufLq/VimIAhp2iwriEsfZvgwQdRssPuYFh9IsVzqqCqa5Yl4m0vgWG8oTZdM0J0xin+3vufDdrUoF3s='
p10
sS'wxloadtime'
p11
S'1521166517_expired'
p12
sS'wxpluginkey'
p13
S'1521157442'
p14
sS'wxsid'
p15
S's6JcW9StwcdQl7C7'
p16
sS'mm_lang'
p17
S'zh_CN'
p18
ssS'version'
p19
S'1.3.10'
p20
sS'storage'
p21
(dp22
S'userName'
p23
V@113a3cafddec8b1cddbf6df1b432f8f255273ff32a6cd9c7f560049ce79883f9
p24
sS'lastInputUserName'
p25
NsS'memberList'
p26
ccopy_reg
_reconstructor
p27
(citchat.storage.templates
ContactList
p28
c__builtin__
list
p29
(lp30
g27
(citchat.storage.templates
User
p31
c__builtin__
dict
p32
(dp33
S'UserName'
p34
g24
sS'City'
p35
S''
p36
sS'DisplayName'
p37
g36
sS'UniFriend'
p38
I0
sS'OwnerUin'
p39
I0
sS'MemberList'
p40
g27
(g28
g29
(lp41
tp42
Rp43
I1
bsS'PYQuanPin'
p44
V
p45
sS'RemarkPYInitial'
p46
g45
sS'Uin'
p47
I2384572421
sS'AppAccountFlag'
p48
I0
sS'VerifyFlag'
p49
I0
sS'Province'
p50
g36
sS'KeyWord'
p51
g36
sS'RemarkName'
p52
g45
sS'PYInitial'
p53
g45
sS'ChatRoomId'
p54
I0
sS'HideInputBarFlag'
p55
I0
sVHeadImgFlag
p56
I1
sS'EncryChatRoomId'
p57
g36
sS'AttrStatus'
p58
I0
sS'SnsFlag'
p59
I17
sS'MemberCount'
p60
I0
sVWebWxPluginSwitch
p61
I0
sS'Alias'
p62
g36
sS'Signature'
p63
V\u52a0\u6cb9\u6bcf\u4e00\u5929
p64
sS'ContactFlag'
p65
I0
sS'NickName'
p66
Vsdserver
p67
sS'RemarkPYQuanPin'
p68
g45
sS'HeadImgUrl'
p69
V/cgi-bin/mmwebwx-bin/webwxgeticon?seq=561526770&username=@113a3cafddec8b1cddbf6df1b432f8f255273ff32a6cd9c7f560049ce79883f9&skey=@crypt_106cd448_154857d44c7c37d63dea93a129b58f17
p70
sS'Sex'
p71
I2
sS'StarFriend'
p72
I0
sS'Statues'
p73
I0
stp74
Rp75
I1
bag27
(g31
g32
(dp76
VUserName
p77
V@ed43e7f5358537ecdcaaad86a65432f4794cba853ae7029b89e10f0e465185a1
p78
sVCity
p79
V\u6210\u90fd
p80
sVSnsFlag
p81
I17
sVDisplayName
p82
g45
sVUniFriend
p83
I0
sVMemberCount
p84
I0
sVOwnerUin
p85
I0
sVMemberList
p86
g43
sVAlias
p87
g45
sVPYQuanPin
p88
Vdapanzitingtingzhang
p89
sVSignature
p90
V\u5df1\u6240\u4e0d\u6b32 \u52ff\u65bd\u4e8e\u4eba 
p91
sVRemarkPYInitial
p92
g45
sVContactFlag
p93
I257
sVUin
p94
I0
sVNickName
p95
V\u5927\u80d6\u5b50\u5a77\u5a77\u5f20
p96
sVAppAccountFlag
p97
I0
sVVerifyFlag
p98
I0
sVRemarkPYQuanPin
p99
g45
sVHeadImgUrl
p100
V/cgi-bin/mmwebwx-bin/webwxgeticon?seq=654653595&username=@ed43e7f5358537ecdcaaad86a65432f4794cba853ae7029b89e10f0e465185a1&skey=@crypt_106cd448_154857d44c7c37d63dea93a129b58f17
p101
sVKeyWord
p102
g45
sVProvince
p103
V\u56db\u5ddd
p104
sVPYInitial
p105
VDPZTTZ
p106
sVRemarkName
p107
g45
sVStarFriend
p108
I0
sVSex
p109
I2
sVIsOwner
p110
I0
sVHideInputBarFlag
p111
I0
sVChatRoomId
p112
I0
sVEncryChatRoomId
p113
g45
sVAttrStatus
p114
I233509
sVStatues
p115
I0
stp116
Rp117
I1
bag27
(g31
g32
(dp118
VUserName
p119
V@684c11693b66ed3f66edc5cf51d2113f
p120
sVCity
p121
V\u6210\u90fd
p122
sVSnsFlag
p123
I17
sVDisplayName
p124
g45
sVUniFriend
p125
I0
sVMemberCount
p126
I0
sVOwnerUin
p127
I0
sVMemberList
p128
g43
sVAlias
p129
g45
sVPYQuanPin
p130
Vnirenzhang
p131
sVSignature
p132
V\u5173\u4e8e\u660e\u5929\u7684\u4e8b\u60c5\uff0c\u540e\u5929\u5c31\u77e5\u9053\u4e86\u3002
p133
sVRemarkPYInitial
p134
g45
sVContactFlag
p135
I1
sVUin
p136
I0
sVNickName
p137
V\u6ce5\u4eba\u5f20
p138
sVAppAccountFlag
p139
I0
sVVerifyFlag
p140
I0
sVRemarkPYQuanPin
p141
g45
sVHeadImgUrl
p142
V/cgi-bin/mmwebwx-bin/webwxgeticon?seq=654650700&username=@684c11693b66ed3f66edc5cf51d2113f&skey=@crypt_106cd448_154857d44c7c37d63dea93a129b58f17
p143
sVKeyWord
p144
Vvan
p145
sVProvince
p146
V\u56db\u5ddd
p147
sVPYInitial
p148
VNRZ
p149
sVRemarkName
p150
g45
sVStarFriend
p151
I0
sVSex
p152
I1
sVIsOwner
p153
I0
sVHideInputBarFlag
p154
I0
sVChatRoomId
p155
I0
sVEncryChatRoomId
p156
g45
sVAttrStatus
p157
I33657255
sVStatues
p158
I0
stp159
Rp160
I1
bag27
(g31
g32
(dp161
VUserName
p162
V@68daf452cb971cd35185f959f2266f5e
p163
sVCity
p164
V\u5b81\u6ce2
p165
sVSnsFlag
p166
I17
sVDisplayName
p167
g45
sVUniFriend
p168
I0
sVMemberCount
p169
I0
sVOwnerUin
p170
I0
sVMemberList
p171
g43
sVAlias
p172
g45
sVPYQuanPin
p173
Vvincent001
p174
sVSignature
p175
g45
sVRemarkPYInitial
p176
g45
sVContactFlag
p177
I1
sVUin
p178
I0
sVNickName
p179
Vvincent001
p180
sVAppAccountFlag
p181
I0
sVVerifyFlag
p182
I0
sVRemarkPYQuanPin
p183
g45
sVHeadImgUrl
p184
V/cgi-bin/mmwebwx-bin/webwxgeticon?seq=671340301&username=@68daf452cb971cd35185f959f2266f5e&skey=@crypt_106cd448_154857d44c7c37d63dea93a129b58f17
p185
sVKeyWord
p186
Vlep
p187
sVProvince
p188
V\u6d59\u6c5f
p189
sVPYInitial
p190
VVINCENT001
p191
sVRemarkName
p192
g45
sVStarFriend
p193
I0
sVSex
p194
I1
sVIsOwner
p195
I0
sVHideInputBarFlag
p196
I0
sVChatRoomId
p197
I0
sVEncryChatRoomId
p198
g45
sVAttrStatus
p199
I14435
sVStatues
p200
I0
stp201
Rp202
I1
batp203
Rp204
I1
bsS'chatroomList'
p205
g27
(g28
g29
(lp206
tp207
Rp208
I1
bsS'nickName'
p209
g67
sS'mpList'
p210
g27
(g28
g29
(lp211
g27
(citchat.storage.templates
MassivePlatform
p212
g32
(dp213
VUserName
p214
V@a22b51b1ab7199e9ff5d6ecc7e30b0e1
p215
sVCity
p216
V\u6ca7\u5dde
p217
sVSnsFlag
p218
I0
sVDisplayName
p219
g45
sVUniFriend
p220
I0
sVMemberCount
p221
I0
sVOwnerUin
p222
I0
sVMemberList
p223
g43
sVAlias
p224
g45
sVPYQuanPin
p225
Vhuangjiaweiqingxian
p226
sVSignature
p227
V\u9752\u53bf\u7b2c\u4e00\u79fb\u52a8\u4e92\u8054\u7f51\u8d44\u8baf\u5e73\u53f0
p228
sVRemarkPYInitial
p229
g45
sVContactFlag
p230
I3
sVUin
p231
I0
sVNickName
p232
V\u7687\u4f73\u5fae\u9752\u53bf
p233
sVAppAccountFlag
p234
I0
sVVerifyFlag
p235
I24
sVRemarkPYQuanPin
p236
g45
sVHeadImgUrl
p237
V/cgi-bin/mmwebwx-bin/webwxgeticon?seq=673690134&username=@a22b51b1ab7199e9ff5d6ecc7e30b0e1&skey=@crypt_106cd448_154857d44c7c37d63dea93a129b58f17
p238
sVKeyWord
p239
Vgh_
p240
sVProvince
p241
V\u6cb3\u5317
p242
sVPYInitial
p243
VHJWQX
p244
sVRemarkName
p245
g45
sVStarFriend
p246
I0
sVSex
p247
I0
sVIsOwner
p248
I0
sVHideInputBarFlag
p249
I0
sVChatRoomId
p250
I0
sVEncryChatRoomId
p251
g45
sVAttrStatus
p252
I0
sVStatues
p253
I0
stp254
Rp255
I1
bag27
(g212
g32
(dp256
VUserName
p257
V@e0d49d6f220a0dee3e24157890152c82
p258
sVCity
p259
V\u5434\u5fe0
p260
sVSnsFlag
p261
I0
sVDisplayName
p262
g45
sVUniFriend
p263
I0
sVMemberCount
p264
I0
sVOwnerUin
p265
I0
sVMemberList
p266
g43
sVAlias
p267
g45
sVPYQuanPin
p268
Vweiwuzhong
p269
sVSignature
p270
V\u5fae\u89c6\u5434\u5fe0 \u5927\u57ce\u5c0f\u4e8b
p271
sVRemarkPYInitial
p272
g45
sVContactFlag
p273
I3
sVUin
p274
I0
sVNickName
p275
V\u5fae\u5434\u5fe0
p276
sVAppAccountFlag
p277
I0
sVVerifyFlag
p278
I24
sVRemarkPYQuanPin
p279
g45
sVHeadImgUrl
p280
V/cgi-bin/mmwebwx-bin/webwxgeticon?seq=671340840&username=@e0d49d6f220a0dee3e24157890152c82&skey=@crypt_106cd448_154857d44c7c37d63dea93a129b58f17
p281
sVKeyWord
p282
Vgh_
p283
sVProvince
p284
V\u5b81\u590f
p285
sVPYInitial
p286
VWWZ
p287
sVRemarkName
p288
g45
sVStarFriend
p289
I0
sVSex
p290
I0
sVIsOwner
p291
I0
sVHideInputBarFlag
p292
I0
sVChatRoomId
p293
I0
sVEncryChatRoomId
p294
g45
sVAttrStatus
p295
I0
sVStatues
p296
I0
stp297
Rp298
I1
bag27
(g212
g32
(dp299
VUserName
p300
V@c25d2271f5f673f6a4829e1b562d8f82
p301
sVCity
p302
V\u5408\u80a5
p303
sVSnsFlag
p304
I0
sVDisplayName
p305
g45
sVUniFriend
p306
I0
sVMemberCount
p307
I0
sVOwnerUin
p308
I0
sVMemberList
p309
g43
sVAlias
p310
g45
sVPYQuanPin
p311
Vanhuifabu
p312
sVSignature
p313
V\u201c\u5b89\u5fbd\u53d1\u5e03\u201d\u7531\u5b89\u5fbd\u7701\u653f\u5e9c\u65b0\u95fb\u529e\u516c\u5ba4\u3001\u5b89\u5fbd\u7701\u4e92\u8054\u7f51\u4fe1\u606f\u529e\u516c\u5ba4\u8054\u5408\u4e3b\u529e\u3002\u5bf9\u5916\u5ba3\u4f20\u9635\u5730\uff0c\u4f20\u9012\u4fe1\u606f\u5e73\u53f0\uff0c\u670d\u52a1\u6c11\u751f\u6e20\u9053\uff0c\u5c55\u793a\u5f62\u8c61\u7a97\u53e3\u3002\u6c5f\u6dee\u5927\u5730\uff0c\u5c71\u5ddd\u79c0\u7f8e\uff0c\u5386\u53f2\u60a0\u4e45\uff0c\u4eba\u6587\u835f\u8403\u3002\u5b89\u5fbd\u53d1\u5e03\uff0c\u8fde\u901a\u4f60\u6211\uff0c\u771f\u8bda\u671f\u5f85\u60a8\u7684\u5173\u6ce8\u548c\u652f\u6301\uff01
p314
sVRemarkPYInitial
p315
g45
sVContactFlag
p316
I3
sVUin
p317
I0
sVNickName
p318
V\u5b89\u5fbd\u53d1\u5e03
p319
sVAppAccountFlag
p320
I0
sVVerifyFlag
p321
I24
sVRemarkPYQuanPin
p322
g45
sVHeadImgUrl
p323
V/cgi-bin/mmwebwx-bin/webwxgeticon?seq=671341013&username=@c25d2271f5f673f6a4829e1b562d8f82&skey=@crypt_106cd448_154857d44c7c37d63dea93a129b58f17
p324
sVKeyWord
p325
Vgh_
p326
sVProvince
p327
V\u5b89\u5fbd
p328
sVPYInitial
p329
VAHFB
p330
sVRemarkName
p331
g45
sVStarFriend
p332
I0
sVSex
p333
I0
sVIsOwner
p334
I0
sVHideInputBarFlag
p335
I0
sVChatRoomId
p336
I0
sVEncryChatRoomId
p337
g45
sVAttrStatus
p338
I0
sVStatues
p339
I0
stp340
Rp341
I1
bag27
(g212
g32
(dp342
VUserName
p343
V@4ffc4f9fabe332372f54cd173298b3c9
p344
sVCity
p345
V\u77f3\u666f\u5c71
p346
sVSnsFlag
p347
I0
sVDisplayName
p348
g45
sVUniFriend
p349
I0
sVMemberCount
p350
I0
sVOwnerUin
p351
I0
sVMemberList
p352
g43
sVAlias
p353
g45
sVPYQuanPin
p354
Vjiancharibao
p355
sVSignature
p356
V\u70b9\u8d5e\u68c0\u5bdf\u597d\u58f0\u97f3 \u63a8\u9001\u53cd\u8150\u6b63\u80fd\u91cf\u3002
p357
sVRemarkPYInitial
p358
g45
sVContactFlag
p359
I3
sVUin
p360
I0
sVNickName
p361
V\u68c0\u5bdf\u65e5\u62a5
p362
sVAppAccountFlag
p363
I0
sVVerifyFlag
p364
I24
sVRemarkPYQuanPin
p365
g45
sVHeadImgUrl
p366
V/cgi-bin/mmwebwx-bin/webwxgeticon?seq=654654567&username=@4ffc4f9fabe332372f54cd173298b3c9&skey=@crypt_106cd448_154857d44c7c37d63dea93a129b58f17
p367
sVKeyWord
p368
Vgh_
p369
sVProvince
p370
V\u5317\u4eac
p371
sVPYInitial
p372
VJCRB
p373
sVRemarkName
p374
g45
sVStarFriend
p375
I0
sVSex
p376
I0
sVIsOwner
p377
I0
sVHideInputBarFlag
p378
I0
sVChatRoomId
p379
I0
sVEncryChatRoomId
p380
g45
sVAttrStatus
p381
I0
sVStatues
p382
I0
stp383
Rp384
I1
bag27
(g212
g32
(dp385
VUserName
p386
V@44e967d7ceebb1d0939cb43ee6b7fe7d
p387
sVCity
p388
V\u897f\u57ce
p389
sVSnsFlag
p390
I0
sVDisplayName
p391
g45
sVUniFriend
p392
I0
sVMemberCount
p393
I0
sVOwnerUin
p394
I0
sVMemberList
p395
g43
sVAlias
p396
g45
sVPYQuanPin
p397
Vzhongguocanjirenlianhehui
p398
sVSignature
p399
V\u4e3a\u79ef\u6781\u56de\u5e94\u793e\u4f1a\u53ca\u5e7f\u5927\u6b8b\u75be\u4eba\u7684\u5173\u5207\uff0c\u4e2d\u56fd\u6b8b\u8054\u201c\u4e24\u5fae\u4e00\u7aef\u201d\u878d\u5408\u4e86\u65b0\u95fb\u53d1\u5e03\u3001\u7f51\u4e0a\u670d\u52a1\u3001\u4e92\u52a8\u4ea4\u6d41\u3001\u542c\u53d6\u610f\u89c1\u7b49\u5185\u5bb9\u3002\u201c\u4e24\u5fae\u4e00\u7aef\u201d\u5c06\u4e3a\u6b8b\u75be\u4eba\u670b\u53cb\u63d0\u4f9b\u66f4\u53ca\u65f6\u3001\u66f4\u5145\u5206\u7684\u4fe1\u606f\u670d\u52a1\uff0c\u6210\u4e3a\u5404\u754c\u670b\u53cb\u4e86\u89e3\u4e2d\u56fd\u6b8b\u75be\u4eba\u4e8b\u4e1a\u7684\u6709\u6548\u5e73\u53f0\u548c\u900f\u660e\u7a97\u53e3\u3002
p400
sVRemarkPYInitial
p401
g45
sVContactFlag
p402
I3
sVUin
p403
I0
sVNickName
p404
V\u4e2d\u56fd\u6b8b\u75be\u4eba\u8054\u5408\u4f1a
p405
sVAppAccountFlag
p406
I0
sVVerifyFlag
p407
I24
sVRemarkPYQuanPin
p408
g45
sVHeadImgUrl
p409
V/cgi-bin/mmwebwx-bin/webwxgeticon?seq=671340992&username=@44e967d7ceebb1d0939cb43ee6b7fe7d&skey=@crypt_106cd448_154857d44c7c37d63dea93a129b58f17
p410
sVKeyWord
p411
Vgh_
p412
sVProvince
p413
V\u5317\u4eac
p414
sVPYInitial
p415
VZGCJRLHH
p416
sVRemarkName
p417
g45
sVStarFriend
p418
I0
sVSex
p419
I0
sVIsOwner
p420
I0
sVHideInputBarFlag
p421
I0
sVChatRoomId
p422
I0
sVEncryChatRoomId
p423
g45
sVAttrStatus
p424
I0
sVStatues
p425
I0
stp426
Rp427
I1
bag27
(g212
g32
(dp428
VUserName
p429
V@4276f49b8b42b3af8bac366367e3c899
p430
sVCity
p431
V\u5408\u80a5
p432
sVSnsFlag
p433
I0
sVDisplayName
p434
g45
sVUniFriend
p435
I0
sVMemberCount
p436
I0
sVOwnerUin
p437
I0
sVMemberList
p438
g43
sVAlias
p439
g45
sVPYQuanPin
p440
Vanhuigongqingtuan
p441
sVSignature
p442
V\u4f60\u8eab\u8fb9\u7684\u56e2\u56e2\uff0c\u4f34\u4f60\u9752\u6625\u5171\u6210\u957f\uff01
p443
sVRemarkPYInitial
p444
g45
sVContactFlag
p445
I3
sVUin
p446
I0
sVNickName
p447
V\u5b89\u5fbd\u5171\u9752\u56e2
p448
sVAppAccountFlag
p449
I0
sVVerifyFlag
p450
I24
sVRemarkPYQuanPin
p451
g45
sVHeadImgUrl
p452
V/cgi-bin/mmwebwx-bin/webwxgeticon?seq=671340417&username=@4276f49b8b42b3af8bac366367e3c899&skey=@crypt_106cd448_154857d44c7c37d63dea93a129b58f17
p453
sVKeyWord
p454
Vgh_
p455
sVProvince
p456
V\u5b89\u5fbd
p457
sVPYInitial
p458
VAHGQT
p459
sVRemarkName
p460
g45
sVStarFriend
p461
I0
sVSex
p462
I0
sVIsOwner
p463
I0
sVHideInputBarFlag
p464
I0
sVChatRoomId
p465
I0
sVEncryChatRoomId
p466
g45
sVAttrStatus
p467
I0
sVStatues
p468
I0
stp469
Rp470
I1
bag27
(g212
g32
(dp471
VUserName
p472
V@88e2f74014e44e98092d678b55e0a00b
p473
sVCity
p474
V\u798f\u5dde
p475
sVSnsFlag
p476
I0
sVDisplayName
p477
g45
sVUniFriend
p478
I0
sVMemberCount
p479
I0
sVOwnerUin
p480
I0
sVMemberList
p481
g43
sVAlias
p482
g45
sVPYQuanPin
p483
Vfuzhouribao
p484
sVSignature
p485
V\u798f\u5dde\u4eba\u5173\u6ce8\u7684\u8eab\u8fb9\u4e8b\u3001\u90a3\u70b9\u4e8b\u6bcf\u65e5\u53ca\u65f6\u9001\u5230\uff01\u5404\u79cd\u798f\u5229\u5404\u79cd\u6d3b\u52a8\u4e0d\u5b9a\u671f\u9001\u4e0a\uff01\u505a\u4f60\u4e86\u89e3\u798f\u5dde\u7684\u7b2c\u4e00\u9009\u62e9\uff01
p486
sVRemarkPYInitial
p487
g45
sVContactFlag
p488
I3
sVUin
p489
I0
sVNickName
p490
V\u798f\u5dde\u65e5\u62a5
p491
sVAppAccountFlag
p492
I0
sVVerifyFlag
p493
I24
sVRemarkPYQuanPin
p494
g45
sVHeadImgUrl
p495
V/cgi-bin/mmwebwx-bin/webwxgeticon?seq=671340788&username=@88e2f74014e44e98092d678b55e0a00b&skey=@crypt_106cd448_154857d44c7c37d63dea93a129b58f17
p496
sVKeyWord
p497
Vgh_
p498
sVProvince
p499
V\u798f\u5efa
p500
sVPYInitial
p501
VFZRB
p502
sVRemarkName
p503
g45
sVStarFriend
p504
I0
sVSex
p505
I0
sVIsOwner
p506
I0
sVHideInputBarFlag
p507
I0
sVChatRoomId
p508
I0
sVEncryChatRoomId
p509
g45
sVAttrStatus
p510
I0
sVStatues
p511
I0
stp512
Rp513
I1
bag27
(g212
g32
(dp514
VUserName
p515
V@1c9eb016da3f7e314bb4f03c8621b32c
p516
sVCity
p517
V\u6cc9\u5dde
p518
sVSnsFlag
p519
I0
sVDisplayName
p520
g45
sVUniFriend
p521
I0
sVMemberCount
p522
I0
sVOwnerUin
p523
I0
sVMemberList
p524
g43
sVAlias
p525
g45
sVPYQuanPin
p526
Vquanzhouwanbao
p527
sVSignature
p528
V\u300a\u6cc9\u5dde\u665a\u62a5\u300b\u7cfb\u4e2d\u56fd\u201c\u767e\u5f3a\u62a5\u520a\u201d\uff0c\u6cc9\u5dde\u665a\u62a5\u793e\u65d7\u4e0b\u6709\u300a\u6cc9\u5dde\u665a\u62a5\u300b\u3001\u300a\u4e1c\u5357\u65e9\u62a5\u300b\u3001\u300a\u6cc9\u5dde\u5546\u62a5\u300b\u3001\u6cc9\u5dde\u7f51\u7b49\u5a92\u4f53\u3002
p529
sVRemarkPYInitial
p530
g45
sVContactFlag
p531
I3
sVUin
p532
I0
sVNickName
p533
V\u6cc9\u5dde\u665a\u62a5
p534
sVAppAccountFlag
p535
I0
sVVerifyFlag
p536
I24
sVRemarkPYQuanPin
p537
g45
sVHeadImgUrl
p538
V/cgi-bin/mmwebwx-bin/webwxgeticon?seq=671340229&username=@1c9eb016da3f7e314bb4f03c8621b32c&skey=@crypt_106cd448_154857d44c7c37d63dea93a129b58f17
p539
sVKeyWord
p540
Vgh_
p541
sVProvince
p542
V\u798f\u5efa
p543
sVPYInitial
p544
VQZWB
p545
sVRemarkName
p546
g45
sVStarFriend
p547
I0
sVSex
p548
I0
sVIsOwner
p549
I0
sVHideInputBarFlag
p550
I0
sVChatRoomId
p551
I0
sVEncryChatRoomId
p552
g45
sVAttrStatus
p553
I0
sVStatues
p554
I0
stp555
Rp556
I1
bag27
(g212
g32
(dp557
VUserName
p558
V@db0543271e14690a3493c0dd09c92f11
p559
sVCity
p560
V\u6e2d\u5357
p561
sVSnsFlag
p562
I0
sVDisplayName
p563
g45
sVUniFriend
p564
I0
sVMemberCount
p565
I0
sVOwnerUin
p566
I0
sVMemberList
p567
g43
sVAlias
p568
g45
sVPYQuanPin
p569
Vlinweiouwenhuaguangdianju
p570
sVSignature
p571
V\u4e34\u6e2d\u533a\u6587\u5316\u5e7f\u7535\u5c40
p572
sVRemarkPYInitial
p573
g45
sVContactFlag
p574
I3
sVUin
p575
I0
sVNickName
p576
V\u4e34\u6e2d\u533a\u6587\u5316\u5e7f\u7535\u5c40
p577
sVAppAccountFlag
p578
I0
sVVerifyFlag
p579
I24
sVRemarkPYQuanPin
p580
g45
sVHeadImgUrl
p581
V/cgi-bin/mmwebwx-bin/webwxgeticon?seq=673690243&username=@db0543271e14690a3493c0dd09c92f11&skey=@crypt_106cd448_154857d44c7c37d63dea93a129b58f17
p582
sVKeyWord
p583
Vgh_
p584
sVProvince
p585
V\u9655\u897f
p586
sVPYInitial
p587
VLWOWHGDJ
p588
sVRemarkName
p589
g45
sVStarFriend
p590
I0
sVSex
p591
I0
sVIsOwner
p592
I0
sVHideInputBarFlag
p593
I0
sVChatRoomId
p594
I0
sVEncryChatRoomId
p595
g45
sVAttrStatus
p596
I0
sVStatues
p597
I0
stp598
Rp599
I1
bag27
(g212
g32
(dp600
VUserName
p601
V@08c073b8576ec64b7b28ec7dc2e81f22
p602
sVCity
p603
V\u90d1\u5dde
p604
sVSnsFlag
p605
I0
sVDisplayName
p606
g45
sVUniFriend
p607
I0
sVMemberCount
p608
I0
sVOwnerUin
p609
I0
sVMemberList
p610
g43
sVAlias
p611
g45
sVPYQuanPin
p612
Vlusezhongyuanmeng
p613
sVSignature
p614
V\u6cb3\u5357\u7701\u519c\u4ea7\u54c1\u8d28\u91cf\u5b89\u5168\u68c0\u6d4b\u4e2d\u5fc3(\u6cb3\u5357\u7701\u7eff\u8272\u98df\u54c1\u53d1\u5c55\u4e2d\u5fc3)\u5b98\u65b9\u8d44\u8baf\u53d1\u5e03\u5e73\u53f0
p615
sVRemarkPYInitial
p616
g45
sVContactFlag
p617
I3
sVUin
p618
I0
sVNickName
p619
V\u7eff\u8272\u4e2d\u539f\u68a6
p620
sVAppAccountFlag
p621
I0
sVVerifyFlag
p622
I24
sVRemarkPYQuanPin
p623
g45
sVHeadImgUrl
p624
V/cgi-bin/mmwebwx-bin/webwxgeticon?seq=671340765&username=@08c073b8576ec64b7b28ec7dc2e81f22&skey=@crypt_106cd448_154857d44c7c37d63dea93a129b58f17
p625
sVKeyWord
p626
Vgh_
p627
sVProvince
p628
V\u6cb3\u5357
p629
sVPYInitial
p630
VLSZYM
p631
sVRemarkName
p632
g45
sVStarFriend
p633
I0
sVSex
p634
I0
sVIsOwner
p635
I0
sVHideInputBarFlag
p636
I0
sVChatRoomId
p637
I0
sVEncryChatRoomId
p638
g45
sVAttrStatus
p639
I0
sVStatues
p640
I0
stp641
Rp642
I1
bag27
(g212
g32
(dp643
VUserName
p644
V@7e3bda354679b8ffbe911830224475e5
p645
sVCity
p646
V\u957f\u6c99
p647
sVSnsFlag
p648
I0
sVDisplayName
p649
g45
sVUniFriend
p650
I0
sVMemberCount
p651
I0
sVOwnerUin
p652
I0
sVMemberList
p653
g43
sVAlias
p654
g45
sVPYQuanPin
p655
Vyunshujiameng
p656
sVSignature
p657
V\u4e3a\u4e91\u6570\u52a0\u76df\u5546\u63d0\u4f9b\u54a8\u8be2\u53ca\u6570\u636e\u670d\u52a1
p658
sVRemarkPYInitial
p659
g45
sVContactFlag
p660
I3
sVUin
p661
I0
sVNickName
p662
V\u4e91\u6570\u52a0\u76df
p663
sVAppAccountFlag
p664
I0
sVVerifyFlag
p665
I24
sVRemarkPYQuanPin
p666
g45
sVHeadImgUrl
p667
V/cgi-bin/mmwebwx-bin/webwxgeticon?seq=654659005&username=@7e3bda354679b8ffbe911830224475e5&skey=@crypt_106cd448_154857d44c7c37d63dea93a129b58f17
p668
sVKeyWord
p669
Vgh_
p670
sVProvince
p671
V\u6e56\u5357
p672
sVPYInitial
p673
VYSJM
p674
sVRemarkName
p675
g45
sVStarFriend
p676
I0
sVSex
p677
I0
sVIsOwner
p678
I0
sVHideInputBarFlag
p679
I0
sVChatRoomId
p680
I0
sVEncryChatRoomId
p681
g45
sVAttrStatus
p682
I0
sVStatues
p683
I0
stp684
Rp685
I1
bag27
(g212
g32
(dp686
VUserName
p687
V@ecdb4102ac6f308f41d54f47ca354b86
p688
sVCity
p689
V\u6cf0\u5b89
p690
sVSnsFlag
p691
I0
sVDisplayName
p692
g45
sVUniFriend
p693
I0
sVMemberCount
p694
I0
sVOwnerUin
p695
I0
sVMemberList
p696
g43
sVAlias
p697
g45
sVPYQuanPin
p698
Vtaianshitaishanyixuezhuanjialianhehui
p699
sVSignature
p700
V\u6cf0\u5b89\u5e02\u6cf0\u5c71\u533b\u5b66\u4e13\u5bb6\u8054\u5408\u4f1a\u65e8\u5728\u6210\u4e3a\u515a\u548c\u653f\u5e9c\u8054\u7cfb\u5e7f\u5927\u533b\u5b66\u5de5\u4f5c\u8005\u7684\u6865\u6881\uff0c\u6210\u4e3a\u53d1\u5c55\u6cf0\u5b89\u533b\u5b66\u6559\u80b2\u4e8b\u4e1a\u7684\u52a9\u624b\uff0c\u6210\u4e3a\u670d\u52a1\u533b\u7597\u5355\u4f4d\u3001\u670d\u52a1\u6cf0\u5b89\u4eba\u6c11\u7684\u7ebd\u5e26\u3002\u8fd8\u627f\u62c5\u7740\u591a\u9879\u653f\u5e9c\u59d4\u6258\u5de5\u4f5c\uff0c\u5176\u4e2d\u6709\u79d1\u7814\u5956\u9879\u7684\u8bc4\u9009\u3001\u4e61\u6751\u53ca\u793e\u533a\u533b\u751f\u7684\u57f9\u8bad\u3001\u7ee7\u7eed\u6559\u80b2\u7684\u57f9\u8bad\u7b49\u7b49\u3002
p701
sVRemarkPYInitial
p702
g45
sVContactFlag
p703
I3
sVUin
p704
I0
sVNickName
p705
V\u6cf0\u5b89\u5e02\u6cf0\u5c71\u533b\u5b66\u4e13\u5bb6\u8054\u5408\u4f1a
p706
sVAppAccountFlag
p707
I0
sVVerifyFlag
p708
I24
sVRemarkPYQuanPin
p709
g45
sVHeadImgUrl
p710
V/cgi-bin/mmwebwx-bin/webwxgeticon?seq=671340126&username=@ecdb4102ac6f308f41d54f47ca354b86&skey=@crypt_106cd448_154857d44c7c37d63dea93a129b58f17
p711
sVKeyWord
p712
Vgh_
p713
sVProvince
p714
V\u5c71\u4e1c
p715
sVPYInitial
p716
VTASTSYXZJLHH
p717
sVRemarkName
p718
g45
sVStarFriend
p719
I0
sVSex
p720
I0
sVIsOwner
p721
I0
sVHideInputBarFlag
p722
I0
sVChatRoomId
p723
I0
sVEncryChatRoomId
p724
g45
sVAttrStatus
p725
I0
sVStatues
p726
I0
stp727
Rp728
I1
bag27
(g212
g32
(dp729
VUserName
p730
V@7244fdd0b0aeb42387fb5263270a527a
p731
sVCity
p732
V\u5170\u5dde\u5e02
p733
sVSnsFlag
p734
I0
sVDisplayName
p735
g45
sVUniFriend
p736
I0
sVMemberCount
p737
I0
sVOwnerUin
p738
I0
sVMemberList
p739
g43
sVAlias
p740
g45
sVPYQuanPin
p741
Vgansunongxing
p742
sVSignature
p743
V\u54c1\u724c\u5ba3\u4f20\u3001\u91d1\u878d\u670d\u52a1
p744
sVRemarkPYInitial
p745
g45
sVContactFlag
p746
I3
sVUin
p747
I0
sVNickName
p748
V\u7518\u8083\u519c\u884c
p749
sVAppAccountFlag
p750
I0
sVVerifyFlag
p751
I24
sVRemarkPYQuanPin
p752
g45
sVHeadImgUrl
p753
V/cgi-bin/mmwebwx-bin/webwxgeticon?seq=671340137&username=@7244fdd0b0aeb42387fb5263270a527a&skey=@crypt_106cd448_154857d44c7c37d63dea93a129b58f17
p754
sVKeyWord
p755
Vgh_
p756
sVProvince
p757
V\u7518\u8083
p758
sVPYInitial
p759
VGSNX
p760
sVRemarkName
p761
g45
sVStarFriend
p762
I0
sVSex
p763
I0
sVIsOwner
p764
I0
sVHideInputBarFlag
p765
I0
sVChatRoomId
p766
I0
sVEncryChatRoomId
p767
g45
sVAttrStatus
p768
I0
sVStatues
p769
I0
stp770
Rp771
I1
bag27
(g212
g32
(dp772
VUserName
p773
V@1ffc4f901644d7da50eca96de99a5af6
p774
sVCity
p775
V\u82cf\u5dde
p776
sVSnsFlag
p777
I0
sVDisplayName
p778
g45
sVUniFriend
p779
I0
sVMemberCount
p780
I0
sVOwnerUin
p781
I0
sVMemberList
p782
g43
sVAlias
p783
g45
sVPYQuanPin
p784
Vwujiangkaifaouzuzhirenshilaodong
p785
sVSignature
p786
V\u5434\u6c5f\u7ecf\u6d4e\u6280\u672f\u5f00\u53d1\u533a\u7ec4\u7ec7\u4eba\u4e8b\u548c\u52b3\u52a8\u4fdd\u969c\u5c40\u5b98\u65b9\u516c\u4f17\u5e73\u53f0
p787
sVRemarkPYInitial
p788
g45
sVContactFlag
p789
I3
sVUin
p790
I0
sVNickName
p791
V\u5434\u6c5f\u5f00\u53d1\u533a\u7ec4\u7ec7\u4eba\u4e8b\u52b3\u52a8
p792
sVAppAccountFlag
p793
I0
sVVerifyFlag
p794
I24
sVRemarkPYQuanPin
p795
g45
sVHeadImgUrl
p796
V/cgi-bin/mmwebwx-bin/webwxgeticon?seq=671340153&username=@1ffc4f901644d7da50eca96de99a5af6&skey=@crypt_106cd448_154857d44c7c37d63dea93a129b58f17
p797
sVKeyWord
p798
Vgh_
p799
sVProvince
p800
V\u6c5f\u82cf
p801
sVPYInitial
p802
VWJKFOZZRSLD
p803
sVRemarkName
p804
g45
sVStarFriend
p805
I0
sVSex
p806
I0
sVIsOwner
p807
I0
sVHideInputBarFlag
p808
I0
sVChatRoomId
p809
I0
sVEncryChatRoomId
p810
g45
sVAttrStatus
p811
I0
sVStatues
p812
I0
stp813
Rp814
I1
bag27
(g212
g32
(dp815
VUserName
p816
V@62b13b01701f6058125062350f0ebbd2
p817
sVCity
p818
V\u4e0a\u9976
p819
sVSnsFlag
p820
I0
sVDisplayName
p821
g45
sVUniFriend
p822
I0
sVMemberCount
p823
I0
sVOwnerUin
p824
I0
sVMemberList
p825
g43
sVAlias
p826
g45
sVPYQuanPin
p827
Vyiyanggonganzaixian
p828
sVSignature
p829
V\u53d1\u5e03\u8b66\u52a1\u4fe1\u606f\u3001\u63d0\u4f9b\u4fbf\u6c11\u670d\u52a1
p830
sVRemarkPYInitial
p831
g45
sVContactFlag
p832
I3
sVUin
p833
I0
sVNickName
p834
V\u5f0b\u9633\u516c\u5b89\u5728\u7ebf
p835
sVAppAccountFlag
p836
I0
sVVerifyFlag
p837
I24
sVRemarkPYQuanPin
p838
g45
sVHeadImgUrl
p839
V/cgi-bin/mmwebwx-bin/webwxgeticon?seq=671340172&username=@62b13b01701f6058125062350f0ebbd2&skey=@crypt_106cd448_154857d44c7c37d63dea93a129b58f17
p840
sVKeyWord
p841
Vgh_
p842
sVProvince
p843
V\u6c5f\u897f
p844
sVPYInitial
p845
VYYGAZX
p846
sVRemarkName
p847
g45
sVStarFriend
p848
I0
sVSex
p849
I0
sVIsOwner
p850
I0
sVHideInputBarFlag
p851
I0
sVChatRoomId
p852
I0
sVEncryChatRoomId
p853
g45
sVAttrStatus
p854
I0
sVStatues
p855
I0
stp856
Rp857
I1
bag27
(g212
g32
(dp858
VUserName
p859
V@8722b7b908c952437c176a2b8fb967d1
p860
sVCity
p861
V\u6210\u90fd
p862
sVSnsFlag
p863
I0
sVDisplayName
p864
g45
sVUniFriend
p865
I0
sVMemberCount
p866
I0
sVOwnerUin
p867
I0
sVMemberList
p868
g43
sVAlias
p869
g45
sVPYQuanPin
p870
Vfazhiquansousuo
p871
sVSignature
p872
V\u56db\u5ddd\u7701\u6cd5\u6cbb\u4e0e\u793e\u4f1a\u6cbb\u7406\u7814\u7a76\u4f1a\uff0c\u662f\u56db\u5ddd\u7701\u6c11\u653f\u5385\u6279\u51c6\uff0c\u300a\u6cd5\u5236\u65e5\u62a5\u300b\u56db\u5ddd\u8bb0\u8005\u7ad9\u53d1\u8d77\uff0c\u5e76\u7531\u5168\u7701\u6cd5\u5f8b\u5de5\u4f5c\u8005\u3001\u6cd5\u5236\u7c7b\u65b0\u95fb\u5ba3\u4f20\u5de5\u4f5c\u8005\u4ee5\u53ca\u6709\u5173\u4e13\u5bb6\u5b66\u8005\u81ea\u613f\u7ec4\u5efa\u7684\u5b66\u672f\u6027\u793e\u4f1a\u56e2\u4f53\u3002\u90ac\u7ea2\u65d7\u4efb\u9996\u4efb\u4f1a\u957f\u3002
p873
sVRemarkPYInitial
p874
g45
sVContactFlag
p875
I3
sVUin
p876
I0
sVNickName
p877
V\u6cd5\u6cbb\u5168\u641c\u7d22
p878
sVAppAccountFlag
p879
I0
sVVerifyFlag
p880
I24
sVRemarkPYQuanPin
p881
g45
sVHeadImgUrl
p882
V/cgi-bin/mmwebwx-bin/webwxgeticon?seq=671340201&username=@8722b7b908c952437c176a2b8fb967d1&skey=@crypt_106cd448_154857d44c7c37d63dea93a129b58f17
p883
sVKeyWord
p884
Vgh_
p885
sVProvince
p886
V\u56db\u5ddd
p887
sVPYInitial
p888
VFZQSS
p889
sVRemarkName
p890
g45
sVStarFriend
p891
I0
sVSex
p892
I0
sVIsOwner
p893
I0
sVHideInputBarFlag
p894
I0
sVChatRoomId
p895
I0
sVEncryChatRoomId
p896
g45
sVAttrStatus
p897
I0
sVStatues
p898
I0
stp899
Rp900
I1
bag27
(g212
g32
(dp901
VUserName
p902
V@f028a61bdd8e42c1c27fde43ca11a4fa
p903
sVCity
p904
V\u897f\u5b89
p905
sVSnsFlag
p906
I0
sVDisplayName
p907
g45
sVUniFriend
p908
I0
sVMemberCount
p909
I0
sVOwnerUin
p910
I0
sVMemberList
p911
g43
sVAlias
p912
g45
sVPYQuanPin
p913
Vmoyudanqingwenhuayishuzhongxin
p914
sVSignature
p915
V\u58a8\u8bed\u4e39\u9752\u6587\u5316\u827a\u672f\u4e2d\u5fc3\u96b6\u5c5e\u4e8e\u897f\u5b89\u58a8\u8bed\u4e39\u9752\u6587\u5316\u827a\u672f\u6709\u9650\u516c\u53f8\uff0c\u4e2d\u5fc3\u81f4\u529b\u4e8e\u513f\u7ae5\u4e13\u4e1a\u4e66\u6cd5\u3001\u7ed8\u753b\u3001
p916
sVRemarkPYInitial
p917
g45
sVContactFlag
p918
I3
sVUin
p919
I0
sVNickName
p920
V\u58a8\u8bed\u4e39\u9752\u6587\u5316\u827a\u672f\u4e2d\u5fc3
p921
sVAppAccountFlag
p922
I0
sVVerifyFlag
p923
I24
sVRemarkPYQuanPin
p924
g45
sVHeadImgUrl
p925
V/cgi-bin/mmwebwx-bin/webwxgeticon?seq=671340219&username=@f028a61bdd8e42c1c27fde43ca11a4fa&skey=@crypt_106cd448_154857d44c7c37d63dea93a129b58f17
p926
sVKeyWord
p927
Vgh_
p928
sVProvince
p929
V\u9655\u897f
p930
sVPYInitial
p931
VMYDQWHYSZX
p932
sVRemarkName
p933
g45
sVStarFriend
p934
I0
sVSex
p935
I0
sVIsOwner
p936
I0
sVHideInputBarFlag
p937
I0
sVChatRoomId
p938
I0
sVEncryChatRoomId
p939
g45
sVAttrStatus
p940
I0
sVStatues
p941
I0
stp942
Rp943
I1
bag27
(g212
g32
(dp944
VUserName
p945
V@c3118f3eab3a47057cf786f5dcc66543
p946
sVCity
p947
V\u6d4e\u5357
p948
sVSnsFlag
p949
I0
sVDisplayName
p950
g45
sVUniFriend
p951
I0
sVMemberCount
p952
I0
sVOwnerUin
p953
I0
sVMemberList
p954
g43
sVAlias
p955
g45
sVPYQuanPin
p956
Vquanchengtongzhan
p957
sVSignature
p958
V\u6d4e\u5357\u5e02\u59d4\u7edf\u6218\u90e8\u5b98\u65b9\u4fe1\u606f\u53d1\u5e03\u5e73\u53f0
p959
sVRemarkPYInitial
p960
g45
sVContactFlag
p961
I3
sVUin
p962
I0
sVNickName
p963
V\u6cc9\u57ce\u7edf\u6218
p964
sVAppAccountFlag
p965
I0
sVVerifyFlag
p966
I24
sVRemarkPYQuanPin
p967
g45
sVHeadImgUrl
p968
V/cgi-bin/mmwebwx-bin/webwxgeticon?seq=671340241&username=@c3118f3eab3a47057cf786f5dcc66543&skey=@crypt_106cd448_154857d44c7c37d63dea93a129b58f17
p969
sVKeyWord
p970
Vgh_
p971
sVProvince
p972
V\u5c71\u4e1c
p973
sVPYInitial
p974
VQCTZ
p975
sVRemarkName
p976
g45
sVStarFriend
p977
I0
sVSex
p978
I0
sVIsOwner
p979
I0
sVHideInputBarFlag
p980
I0
sVChatRoomId
p981
I0
sVEncryChatRoomId
p982
g45
sVAttrStatus
p983
I0
sVStatues
p984
I0
stp985
Rp986
I1
bag27
(g212
g32
(dp987
VUserName
p988
V@a9e1a50e1bbab2f0824701ca6dd8e77a
p989
sVCity
p990
V\u6c38\u5dde
p991
sVSnsFlag
p992
I0
sVDisplayName
p993
g45
sVUniFriend
p994
I0
sVMemberCount
p995
I0
sVOwnerUin
p996
I0
sVMemberList
p997
g43
sVAlias
p998
g45
sVPYQuanPin
p999
Vshuangpaizugongzaixian
p1000
sVSignature
p1001
V\u6743\u5a01\u53d1\u5e03\u7ec4\u5de5\u4fe1\u606f
p1002
sVRemarkPYInitial
p1003
g45
sVContactFlag
p1004
I3
sVUin
p1005
I0
sVNickName
p1006
V\u53cc\u724c\u7ec4\u5de5\u5728\u7ebf
p1007
sVAppAccountFlag
p1008
I0
sVVerifyFlag
p1009
I24
sVRemarkPYQuanPin
p1010
g45
sVHeadImgUrl
p1011
V/cgi-bin/mmwebwx-bin/webwxgeticon?seq=671340248&username=@a9e1a50e1bbab2f0824701ca6dd8e77a&skey=@crypt_106cd448_154857d44c7c37d63dea93a129b58f17
p1012
sVKeyWord
p1013
Vgh_
p1014
sVProvince
p1015
V\u6e56\u5357
p1016
sVPYInitial
p1017
VSPZGZX
p1018
sVRemarkName
p1019
g45
sVStarFriend
p1020
I0
sVSex
p1021
I0
sVIsOwner
p1022
I0
sVHideInputBarFlag
p1023
I0
sVChatRoomId
p1024
I0
sVEncryChatRoomId
p1025
g45
sVAttrStatus
p1026
I0
sVStatues
p1027
I0
stp1028
Rp1029
I1
bag27
(g212
g32
(dp1030
VUserName
p1031
V@7b397883a0283990ea72c1a6a2d8e0fe
p1032
sVCity
p1033
V\u82cf\u5dde
p1034
sVSnsFlag
p1035
I0
sVDisplayName
p1036
g45
sVUniFriend
p1037
I0
sVMemberCount
p1038
I0
sVOwnerUin
p1039
I0
sVMemberList
p1040
g43
sVAlias
p1041
g45
sVPYQuanPin
p1042
Vpingbotai
p1043
sVSignature
p1044
V\u5e73\u671b\u9547\u5ba3\u4f20\u5e73\u53f0
p1045
sVRemarkPYInitial
p1046
g45
sVContactFlag
p1047
I3
sVUin
p1048
I0
sVNickName
p1049
V\u5e73\u6ce2\u53f0
p1050
sVAppAccountFlag
p1051
I0
sVVerifyFlag
p1052
I24
sVRemarkPYQuanPin
p1053
g45
sVHeadImgUrl
p1054
V/cgi-bin/mmwebwx-bin/webwxgeticon?seq=671340346&username=@7b397883a0283990ea72c1a6a2d8e0fe&skey=@crypt_106cd448_154857d44c7c37d63dea93a129b58f17
p1055
sVKeyWord
p1056
Vgh_
p1057
sVProvince
p1058
V\u6c5f\u82cf
p1059
sVPYInitial
p1060
VPBT
p1061
sVRemarkName
p1062
g45
sVStarFriend
p1063
I0
sVSex
p1064
I0
sVIsOwner
p1065
I0
sVHideInputBarFlag
p1066
I0
sVChatRoomId
p1067
I0
sVEncryChatRoomId
p1068
g45
sVAttrStatus
p1069
I0
sVStatues
p1070
I0
stp1071
Rp1072
I1
bag27
(g212
g32
(dp1073
VUserName
p1074
V@d6b871be2c92616486b0ea7c8e4f6258
p1075
sVCity
p1076
V\u5927\u5174
p1077
sVSnsFlag
p1078
I0
sVDisplayName
p1079
g45
sVUniFriend
p1080
I0
sVMemberCount
p1081
I0
sVOwnerUin
p1082
I0
sVMemberList
p1083
g43
sVAlias
p1084
g45
sVPYQuanPin
p1085
Vjuranzhijiadaxingdian
p1086
sVSignature
p1087
V\u5c45\u7136\u4e4b\u5bb6\u5927\u5174\u5e97\u54c1\u724c\u53ca\u6d3b\u52a8\u5ba3\u4f20\uff0c\u987e\u5ba2\u4fe1\u606f\u53cd\u9988\u3002
p1088
sVRemarkPYInitial
p1089
g45
sVContactFlag
p1090
I3
sVUin
p1091
I0
sVNickName
p1092
V\u5c45\u7136\u4e4b\u5bb6\u5927\u5174\u5e97
p1093
sVAppAccountFlag
p1094
I0
sVVerifyFlag
p1095
I24
sVRemarkPYQuanPin
p1096
g45
sVHeadImgUrl
p1097
V/cgi-bin/mmwebwx-bin/webwxgeticon?seq=671340394&username=@d6b871be2c92616486b0ea7c8e4f6258&skey=@crypt_106cd448_154857d44c7c37d63dea93a129b58f17
p1098
sVKeyWord
p1099
Vgh_
p1100
sVProvince
p1101
V\u5317\u4eac
p1102
sVPYInitial
p1103
VJRZJDXD
p1104
sVRemarkName
p1105
g45
sVStarFriend
p1106
I0
sVSex
p1107
I0
sVIsOwner
p1108
I0
sVHideInputBarFlag
p1109
I0
sVChatRoomId
p1110
I0
sVEncryChatRoomId
p1111
g45
sVAttrStatus
p1112
I0
sVStatues
p1113
I0
stp1114
Rp1115
I1
bag27
(g212
g32
(dp1116
VUserName
p1117
V@99d7afc028d2c550a665efa5da118e07
p1118
sVCity
p1119
V\u6cf8\u5dde
p1120
sVSnsFlag
p1121
I0
sVDisplayName
p1122
g45
sVUniFriend
p1123
I0
sVMemberCount
p1124
I0
sVOwnerUin
p1125
I0
sVMemberList
p1126
g43
sVAlias
p1127
g45
sVPYQuanPin
p1128
Vluzhoujuanzi
p1129
sVSignature
p1130
V\u7528\u5fc3\u6253\u9020\u6cf8\u5dde\u4eba\u751f\u6d3b\u3001\u4f11\u95f2\u3001\u5a31\u4e50\u3001\u5de5\u4f5c\u4ea4\u9645\u5708\u3002\u63a8\u9001\u6cf8\u5dde\u6700\u65b0\u798f\u5229\u4f18\u60e0\u3001\u60c5\u611f\u7206\u6599\u3001\u95ee\u653f\u670d\u52a1\u3002\u5feb\u548c\u4f60\u7684\u5c0f\u4f19\u4f34\u4e00\u8d77\u52a0\u5165\u6211\u4eec\u7684family\uff01
p1131
sVRemarkPYInitial
p1132
g45
sVContactFlag
p1133
I3
sVUin
p1134
I0
sVNickName
p1135
V\u6cf8\u5dde\u5708\u5b50
p1136
sVAppAccountFlag
p1137
I0
sVVerifyFlag
p1138
I24
sVRemarkPYQuanPin
p1139
g45
sVHeadImgUrl
p1140
V/cgi-bin/mmwebwx-bin/webwxgeticon?seq=671340424&username=@99d7afc028d2c550a665efa5da118e07&skey=@crypt_106cd448_154857d44c7c37d63dea93a129b58f17
p1141
sVKeyWord
p1142
Vgh_
p1143
sVProvince
p1144
V\u56db\u5ddd
p1145
sVPYInitial
p1146
VLZJZ
p1147
sVRemarkName
p1148
g45
sVStarFriend
p1149
I0
sVSex
p1150
I0
sVIsOwner
p1151
I0
sVHideInputBarFlag
p1152
I0
sVChatRoomId
p1153
I0
sVEncryChatRoomId
p1154
g45
sVAttrStatus
p1155
I0
sVStatues
p1156
I0
stp1157
Rp1158
I1
bag27
(g212
g32
(dp1159
VUserName
p1160
V@a39f3ab329552c7674fe7c4acebbd834
p1161
sVCity
p1162
V\u6dc4\u535a
p1163
sVSnsFlag
p1164
I0
sVDisplayName
p1165
g45
sVUniFriend
p1166
I0
sVMemberCount
p1167
I0
sVOwnerUin
p1168
I0
sVMemberList
p1169
g43
sVAlias
p1170
g45
sVPYQuanPin
p1171
Vzichuannongcunshangyeyinxing
p1172
sVSignature
p1173
V\u7acb\u8db3\u57ce\u4e61 \u670d\u52a1\u5927\u4f17
p1174
sVRemarkPYInitial
p1175
g45
sVContactFlag
p1176
I3
sVUin
p1177
I0
sVNickName
p1178
V\u6dc4\u5ddd\u519c\u6751\u5546\u4e1a\u94f6\u884c
p1179
sVAppAccountFlag
p1180
I0
sVVerifyFlag
p1181
I24
sVRemarkPYQuanPin
p1182
g45
sVHeadImgUrl
p1183
V/cgi-bin/mmwebwx-bin/webwxgeticon?seq=671340440&username=@a39f3ab329552c7674fe7c4acebbd834&skey=@crypt_106cd448_154857d44c7c37d63dea93a129b58f17
p1184
sVKeyWord
p1185
Vgh_
p1186
sVProvince
p1187
V\u5c71\u4e1c
p1188
sVPYInitial
p1189
VZCNCSYYX
p1190
sVRemarkName
p1191
g45
sVStarFriend
p1192
I0
sVSex
p1193
I0
sVIsOwner
p1194
I0
sVHideInputBarFlag
p1195
I0
sVChatRoomId
p1196
I0
sVEncryChatRoomId
p1197
g45
sVAttrStatus
p1198
I0
sVStatues
p1199
I0
stp1200
Rp1201
I1
bag27
(g212
g32
(dp1202
VUserName
p1203
V@b416c1a6fc4c00616af2e1b886379b0a
p1204
sVCity
p1205
V\u676d\u5dde
p1206
sVSnsFlag
p1207
I0
sVDisplayName
p1208
g45
sVUniFriend
p1209
I0
sVMemberCount
p1210
I0
sVOwnerUin
p1211
I0
sVMemberList
p1212
g43
sVAlias
p1213
g45
sVPYQuanPin
p1214
Vhangzhouwenhuaxiaofei
p1215
sVSignature
p1216
V\u676d\u5dde\u5e02\u6587\u5316\u60e0\u6c11\u5e73\u53f0
p1217
sVRemarkPYInitial
p1218
g45
sVContactFlag
p1219
I3
sVUin
p1220
I0
sVNickName
p1221
V\u676d\u5dde\u6587\u5316\u6d88\u8d39
p1222
sVAppAccountFlag
p1223
I0
sVVerifyFlag
p1224
I24
sVRemarkPYQuanPin
p1225
g45
sVHeadImgUrl
p1226
V/cgi-bin/mmwebwx-bin/webwxgeticon?seq=671340478&username=@b416c1a6fc4c00616af2e1b886379b0a&skey=@crypt_106cd448_154857d44c7c37d63dea93a129b58f17
p1227
sVKeyWord
p1228
Vgh_
p1229
sVProvince
p1230
V\u6d59\u6c5f
p1231
sVPYInitial
p1232
VHZWHXF
p1233
sVRemarkName
p1234
g45
sVStarFriend
p1235
I0
sVSex
p1236
I0
sVIsOwner
p1237
I0
sVHideInputBarFlag
p1238
I0
sVChatRoomId
p1239
I0
sVEncryChatRoomId
p1240
g45
sVAttrStatus
p1241
I0
sVStatues
p1242
I0
stp1243
Rp1244
I1
bag27
(g212
g32
(dp1245
VUserName
p1246
V@bfaf35bc07cd95d23632f23ebbd92b7d
p1247
sVCity
p1248
V\u56db\u5e73
p1249
sVSnsFlag
p1250
I0
sVDisplayName
p1251
g45
sVUniFriend
p1252
I0
sVMemberCount
p1253
I0
sVOwnerUin
p1254
I0
sVMemberList
p1255
g43
sVAlias
p1256
g45
sVPYQuanPin
p1257
Vwenminggongzhuling
p1258
sVSignature
p1259
V\u7ec4\u7ec7\u3001\u534f\u8c03\u548c\u6307\u5bfc\u5168\u5e02\u7fa4\u4f17\u6027\u7cbe\u795e\u6587\u660e\u521b\u5efa\u6d3b\u52a8\uff0c\u57f9\u80b2\u548c\u8df5\u884c\u793e\u4f1a\u4e3b\u4e49\u6838\u5fc3\u4ef7\u503c\u89c2\u3002
p1260
sVRemarkPYInitial
p1261
g45
sVContactFlag
p1262
I3
sVUin
p1263
I0
sVNickName
p1264
V\u6587\u660e\u516c\u4e3b\u5cad
p1265
sVAppAccountFlag
p1266
I0
sVVerifyFlag
p1267
I24
sVRemarkPYQuanPin
p1268
g45
sVHeadImgUrl
p1269
V/cgi-bin/mmwebwx-bin/webwxgeticon?seq=671340530&username=@bfaf35bc07cd95d23632f23ebbd92b7d&skey=@crypt_106cd448_154857d44c7c37d63dea93a129b58f17
p1270
sVKeyWord
p1271
Vgh_
p1272
sVProvince
p1273
V\u5409\u6797
p1274
sVPYInitial
p1275
VWMGZL
p1276
sVRemarkName
p1277
g45
sVStarFriend
p1278
I0
sVSex
p1279
I0
sVIsOwner
p1280
I0
sVHideInputBarFlag
p1281
I0
sVChatRoomId
p1282
I0
sVEncryChatRoomId
p1283
g45
sVAttrStatus
p1284
I0
sVStatues
p1285
I0
stp1286
Rp1287
I1
bag27
(g212
g32
(dp1288
VUserName
p1289
V@716e582b33b1496248481f45cc7e4cf8
p1290
sVCity
p1291
V\u77f3\u5bb6\u5e84
p1292
sVSnsFlag
p1293
I0
sVDisplayName
p1294
g45
sVUniFriend
p1295
I0
sVMemberCount
p1296
I0
sVOwnerUin
p1297
I0
sVMemberList
p1298
g43
sVAlias
p1299
g45
sVPYQuanPin
p1300
Vhebeishengxiaoxie
p1301
sVSignature
p1302
V\u201c\u6cb3\u5317\u7701\u6d88\u534f\u201d\u575a\u6301\u6b63\u786e\u8206\u8bba\u5bfc\u5411\uff0c\u8d1f\u8d23\u53ca\u65f6\u53d1\u5e03\u6d88\u8d39\u7ef4\u6743\u91cd\u8981\u65b0\u95fb\u3001\u6743\u5a01\u89e3\u8bfb\u51b3\u7b56\u90e8\u7f72\uff0c\u5c55\u793a\u5404\u7ea7\u6d88\u534f\u5de5\u4f5c\u6210\u6548\u3001\u53d7\u7406\u6d88\u8d39\u8005\u6295\u8bc9\u548c\u54a8\u8be2\u3001\u5f00\u5c55\u6d88\u8d39\u6559\u80b2\u3001\u53d1\u5e03\u6d88\u8d39\u8b66\u793a\u7b49\u804c\u8d23\uff0c\u4e3b\u8981\u7528\u4e8e\u53d1\u5e03\u5168\u7701\u6d88\u8d39\u7ef4\u6743\u5de5\u4f5c\u7684\u4fe1\u606f\uff0c\u4e3a\u5e7f\u5927\u6d88\u8d39\u8005\u63d0\u4f9b\u4fe1\u606f\u670d\u52a1\u3002
p1303
sVRemarkPYInitial
p1304
g45
sVContactFlag
p1305
I3
sVUin
p1306
I0
sVNickName
p1307
V\u6cb3\u5317\u7701\u6d88\u534f
p1308
sVAppAccountFlag
p1309
I0
sVVerifyFlag
p1310
I24
sVRemarkPYQuanPin
p1311
g45
sVHeadImgUrl
p1312
V/cgi-bin/mmwebwx-bin/webwxgeticon?seq=671340561&username=@716e582b33b1496248481f45cc7e4cf8&skey=@crypt_106cd448_154857d44c7c37d63dea93a129b58f17
p1313
sVKeyWord
p1314
Vgh_
p1315
sVProvince
p1316
V\u6cb3\u5317
p1317
sVPYInitial
p1318
VHBSXX
p1319
sVRemarkName
p1320
g45
sVStarFriend
p1321
I0
sVSex
p1322
I0
sVIsOwner
p1323
I0
sVHideInputBarFlag
p1324
I0
sVChatRoomId
p1325
I0
sVEncryChatRoomId
p1326
g45
sVAttrStatus
p1327
I0
sVStatues
p1328
I0
stp1329
Rp1330
I1
bag27
(g212
g32
(dp1331
VUserName
p1332
V@1c24069f502faf3a9048a41a3a4a5b03
p1333
sVCity
p1334
V\u671d\u9633
p1335
sVSnsFlag
p1336
I0
sVDisplayName
p1337
g45
sVUniFriend
p1338
I0
sVMemberCount
p1339
I0
sVOwnerUin
p1340
I0
sVMemberList
p1341
g43
sVAlias
p1342
g45
sVPYQuanPin
p1343
Vjiankangyanglaochanyelianmeng
p1344
sVSignature
p1345
V\u4e13\u6ce8\u7814\u7a76\u548c\u670d\u52a1\u4e2d\u56fd\u5065\u5eb7\u517b\u8001\u4ea7\u4e1a\uff0c\u6253\u9020\u5065\u5eb7\u517b\u8001\u6c11\u95f4\u667a\u5e93\uff0c\u5efa\u8bbe\u517b\u8001\u4ea7\u4e1a\u4ea4\u6d41\u4e0e\u5408\u4f5c\u7684\u5e73\u53f0\u3002\u89e3\u8bfb\u517b\u8001\u653f\u7b56\u3001\u542f\u53d1\u5546\u4e1a\u601d\u7ef4\u3001\u521b\u9020\u517b\u8001\u6a21\u5f0f\uff0c\u63d0\u4f9b\u517b\u8001\u4ea7\u4e1a\u54a8\u8be2\u3001\u987e\u95ee\u3001\u6295\u878d\u8d44\u3001\u89c4\u5212\u3001\u8bbe\u8ba1\u3001\u8fd0\u8425\u3001\u63a8\u5e7f\u7b49\u4e13\u4e1a\u670d\u52a1\u3002
p1346
sVRemarkPYInitial
p1347
g45
sVContactFlag
p1348
I3
sVUin
p1349
I0
sVNickName
p1350
V\u5065\u5eb7\u517b\u8001\u4ea7\u4e1a\u8054\u76df
p1351
sVAppAccountFlag
p1352
I0
sVVerifyFlag
p1353
I24
sVRemarkPYQuanPin
p1354
g45
sVHeadImgUrl
p1355
V/cgi-bin/mmwebwx-bin/webwxgeticon?seq=671340596&username=@1c24069f502faf3a9048a41a3a4a5b03&skey=@crypt_106cd448_154857d44c7c37d63dea93a129b58f17
p1356
sVKeyWord
p1357
Vgh_
p1358
sVProvince
p1359
V\u5317\u4eac
p1360
sVPYInitial
p1361
VJKYLCYLM
p1362
sVRemarkName
p1363
g45
sVStarFriend
p1364
I0
sVSex
p1365
I0
sVIsOwner
p1366
I0
sVHideInputBarFlag
p1367
I0
sVChatRoomId
p1368
I0
sVEncryChatRoomId
p1369
g45
sVAttrStatus
p1370
I0
sVStatues
p1371
I0
stp1372
Rp1373
I1
bag27
(g212
g32
(dp1374
VUserName
p1375
V@53e7c57418c06576b6ca0857c9da115d
p1376
sVCity
p1377
V\u73e0\u6d77
p1378
sVSnsFlag
p1379
I0
sVDisplayName
p1380
g45
sVUniFriend
p1381
I0
sVMemberCount
p1382
I0
sVOwnerUin
p1383
I0
sVMemberList
p1384
g43
sVAlias
p1385
g45
sVPYQuanPin
p1386
Vyingyitangwenhua
p1387
sVSignature
p1388
V\u82f1\u7fa9\u5802\u6587\u5316
p1389
sVRemarkPYInitial
p1390
g45
sVContactFlag
p1391
I3
sVUin
p1392
I0
sVNickName
p1393
V\u82f1\u7fa9\u5802\u6587\u5316
p1394
sVAppAccountFlag
p1395
I0
sVVerifyFlag
p1396
I24
sVRemarkPYQuanPin
p1397
g45
sVHeadImgUrl
p1398
V/cgi-bin/mmwebwx-bin/webwxgeticon?seq=671340624&username=@53e7c57418c06576b6ca0857c9da115d&skey=@crypt_106cd448_154857d44c7c37d63dea93a129b58f17
p1399
sVKeyWord
p1400
Vgh_
p1401
sVProvince
p1402
V\u5e7f\u4e1c
p1403
sVPYInitial
p1404
VYYTWH
p1405
sVRemarkName
p1406
g45
sVStarFriend
p1407
I0
sVSex
p1408
I0
sVIsOwner
p1409
I0
sVHideInputBarFlag
p1410
I0
sVChatRoomId
p1411
I0
sVEncryChatRoomId
p1412
g45
sVAttrStatus
p1413
I0
sVStatues
p1414
I0
stp1415
Rp1416
I1
bag27
(g212
g32
(dp1417
VUserName
p1418
V@ddce8908f75bd56712ec6467b3469143
p1419
sVCity
p1420
V\u8d63\u5dde
p1421
sVSnsFlag
p1422
I0
sVDisplayName
p1423
g45
sVUniFriend
p1424
I0
sVMemberCount
p1425
I0
sVOwnerUin
p1426
I0
sVMemberList
p1427
g43
sVAlias
p1428
g45
sVPYQuanPin
p1429
Vganzhouchihewanyue
p1430
sVSignature
p1431
V\u7f51\u7f57\u8d63\u5dde\u5403\u559d\u73a9\u4e50\u3001\u5947\u4eba\u3001\u5947\u4e8b\u3001\u5927\u4e8b\u3001\u5c0f\u4e8b\u3001\u8eab\u8fb9\u4e8b!
p1432
sVRemarkPYInitial
p1433
g45
sVContactFlag
p1434
I3
sVUin
p1435
I0
sVNickName
p1436
V\u8d63\u5dde\u5403\u559d\u73a9\u4e50
p1437
sVAppAccountFlag
p1438
I0
sVVerifyFlag
p1439
I24
sVRemarkPYQuanPin
p1440
g45
sVHeadImgUrl
p1441
V/cgi-bin/mmwebwx-bin/webwxgeticon?seq=671340638&username=@ddce8908f75bd56712ec6467b3469143&skey=@crypt_106cd448_154857d44c7c37d63dea93a129b58f17
p1442
sVKeyWord
p1443
Vgh_
p1444
sVProvince
p1445
V\u6c5f\u897f
p1446
sVPYInitial
p1447
VGZCHWY
p1448
sVRemarkName
p1449
g45
sVStarFriend
p1450
I0
sVSex
p1451
I0
sVIsOwner
p1452
I0
sVHideInputBarFlag
p1453
I0
sVChatRoomId
p1454
I0
sVEncryChatRoomId
p1455
g45
sVAttrStatus
p1456
I0
sVStatues
p1457
I0
stp1458
Rp1459
I1
bag27
(g212
g32
(dp1460
VUserName
p1461
V@7b713b4578411b2e865f27811d5cf1b9
p1462
sVCity
p1463
V\u5e38\u5dde
p1464
sVSnsFlag
p1465
I0
sVDisplayName
p1466
g45
sVUniFriend
p1467
I0
sVMemberCount
p1468
I0
sVOwnerUin
p1469
I0
sVMemberList
p1470
g43
sVAlias
p1471
g45
sVPYQuanPin
p1472
Vjiangsujiaodazhilifang
p1473
sVSignature
p1474
V\u6602\u7acb\u667a\u7acb\u65b9\u6559\u80b2\u6e90\u81ea\u4ea4\u5927\uff0c34\u5e74\u6559\u5b66\u7ecf\u9a8c\uff0c\u66f4\u61c2\u4e2d\u9ad8\u8003\uff01\u63d0\u4f9b1\u5bf91\u30011\u5bf93\u4e2a\u6027\u5316\u8bfe\u7a0b\u8f85\u5bfc\uff0c\u6559\u5e08\u966a\u8bfb\u7b54\u7591\uff0c\u73ed\u4e3b\u4efb\u5fc3\u7406\u8f85\u5bfc\uff0c\u5bb6\u957f\u4ea4\u6d41\u6c9f\u901a\u7b49\u589e\u503c\u670d\u52a1\uff0c\u5e2e\u52a9\u5e7f\u5927\u4e2d\u5b66\u751f\u5feb\u901f\u5347\u5b66\u6821\u6210\u7ee9\uff0c\u5168\u65b9\u4f4d\u4e3a\u5b69\u5b50\u5efa\u8bbe\u4e00\u4e2a\u6709\u76ee\u6807\u3001\u6709\u65b9\u6cd5\u3001\u6709\u6548\u679c\u7684\u5feb\u4e50\u5b66\u4e60\u201c\u7acb\u65b9\u4f53\u201d\u3002
p1475
sVRemarkPYInitial
p1476
g45
sVContactFlag
p1477
I3
sVUin
p1478
I0
sVNickName
p1479
V\u6c5f\u82cf\u4ea4\u5927\u667a\u7acb\u65b9
p1480
sVAppAccountFlag
p1481
I0
sVVerifyFlag
p1482
I24
sVRemarkPYQuanPin
p1483
g45
sVHeadImgUrl
p1484
V/cgi-bin/mmwebwx-bin/webwxgeticon?seq=671340648&username=@7b713b4578411b2e865f27811d5cf1b9&skey=@crypt_106cd448_154857d44c7c37d63dea93a129b58f17
p1485
sVKeyWord
p1486
Vgh_
p1487
sVProvince
p1488
V\u6c5f\u82cf
p1489
sVPYInitial
p1490
VJSJDZLF
p1491
sVRemarkName
p1492
g45
sVStarFriend
p1493
I0
sVSex
p1494
I0
sVIsOwner
p1495
I0
sVHideInputBarFlag
p1496
I0
sVChatRoomId
p1497
I0
sVEncryChatRoomId
p1498
g45
sVAttrStatus
p1499
I0
sVStatues
p1500
I0
stp1501
Rp1502
I1
bag27
(g212
g32
(dp1503
VUserName
p1504
V@6f94d47b0b56a89d410880cce17b5a6e
p1505
sVCity
p1506
V\u5e38\u5fb7
p1507
sVSnsFlag
p1508
I0
sVDisplayName
p1509
g45
sVUniFriend
p1510
I0
sVMemberCount
p1511
I0
sVOwnerUin
p1512
I0
sVMemberList
p1513
g43
sVAlias
p1514
g45
sVPYQuanPin
p1515
Vchangdetongzhan
p1516
sVSignature
p1517
V\u5168\u5e02\u7edf\u4e00\u6218\u7ebf\u5f00\u5c55\u5de5\u4f5c\u3001\u5b66\u4e60\u3001\u751f\u6d3b\u7684\u5c55\u793a\u5e73\u53f0
p1518
sVRemarkPYInitial
p1519
g45
sVContactFlag
p1520
I3
sVUin
p1521
I0
sVNickName
p1522
V\u5e38\u5fb7\u7edf\u6218
p1523
sVAppAccountFlag
p1524
I0
sVVerifyFlag
p1525
I24
sVRemarkPYQuanPin
p1526
g45
sVHeadImgUrl
p1527
V/cgi-bin/mmwebwx-bin/webwxgeticon?seq=671340686&username=@6f94d47b0b56a89d410880cce17b5a6e&skey=@crypt_106cd448_154857d44c7c37d63dea93a129b58f17
p1528
sVKeyWord
p1529
Vgh_
p1530
sVProvince
p1531
V\u6e56\u5357
p1532
sVPYInitial
p1533
VCDTZ
p1534
sVRemarkName
p1535
g45
sVStarFriend
p1536
I0
sVSex
p1537
I0
sVIsOwner
p1538
I0
sVHideInputBarFlag
p1539
I0
sVChatRoomId
p1540
I0
sVEncryChatRoomId
p1541
g45
sVAttrStatus
p1542
I0
sVStatues
p1543
I0
stp1544
Rp1545
I1
bag27
(g212
g32
(dp1546
VUserName
p1547
V@1a99a3a726b03badb0d9680b9399868b
p1548
sVCity
p1549
V\u6f4d\u574a
p1550
sVSnsFlag
p1551
I0
sVDisplayName
p1552
g45
sVUniFriend
p1553
I0
sVMemberCount
p1554
I0
sVOwnerUin
p1555
I0
sVMemberList
p1556
g43
sVAlias
p1557
g45
sVPYQuanPin
p1558
Vcainongzhijialianheshe
p1559
sVSignature
p1560
V\u517b\u62a4\u571f\u58e4\u5065\u5eb7\u673a\u4f53\uff0c\u56de\u5f52\u852c\u83dc\u5929\u7136\u54c1\u8d28\u3002\u83dc\u519c\u4e4b\u5bb6\u8054\u5408\u793e\uff0c\u670d\u52a1\u6700\u540e100\u7c73\uff01\u63d0\u4f9b\u852c\u83dc\u5168\u7a0b\u89e3\u51b3\u65b9\u6848\uff0c\u5168\u7a0b\u670d\u52a1\u83dc\u519c\uff0c\u52a9\u529b\u5bff\u5149\u852c\u83dc\u4ea7\u4e1a\u4e0a\u6863\u5347\u7ea7\u3002
p1561
sVRemarkPYInitial
p1562
g45
sVContactFlag
p1563
I3
sVUin
p1564
I0
sVNickName
p1565
V\u83dc\u519c\u4e4b\u5bb6\u8054\u5408\u793e
p1566
sVAppAccountFlag
p1567
I0
sVVerifyFlag
p1568
I24
sVRemarkPYQuanPin
p1569
g45
sVHeadImgUrl
p1570
V/cgi-bin/mmwebwx-bin/webwxgeticon?seq=671340693&username=@1a99a3a726b03badb0d9680b9399868b&skey=@crypt_106cd448_154857d44c7c37d63dea93a129b58f17
p1571
sVKeyWord
p1572
Vgh_
p1573
sVProvince
p1574
V\u5c71\u4e1c
p1575
sVPYInitial
p1576
VCNZJLHS
p1577
sVRemarkName
p1578
g45
sVStarFriend
p1579
I0
sVSex
p1580
I0
sVIsOwner
p1581
I0
sVHideInputBarFlag
p1582
I0
sVChatRoomId
p1583
I0
sVEncryChatRoomId
p1584
g45
sVAttrStatus
p1585
I0
sVStatues
p1586
I0
stp1587
Rp1588
I1
bag27
(g212
g32
(dp1589
VUserName
p1590
V@168aeea3d1000c6625fc37019b416d9d
p1591
sVCity
p1592
V\u5f00\u5c01
p1593
sVSnsFlag
p1594
I0
sVDisplayName
p1595
g45
sVUniFriend
p1596
I0
sVMemberCount
p1597
I0
sVOwnerUin
p1598
I0
sVMemberList
p1599
g43
sVAlias
p1600
g45
sVPYQuanPin
p1601
Vkaifengwang
p1602
sVSignature
p1603
V\u5f00\u5c01\u7f51\uff08www.kf.cn\uff09\uff0c\u5f00\u5c01\u4e3b\u6d41\u7f51\u7edc\u5a92\u4f53\uff0c\u7b2c\u4e00\u95e8\u6237\u3002 \u5728\u8fd9\u91cc\uff0c\u4e86\u89e3\u4e0d\u4e00\u6837\u7684\u5f00\u5c01\u3002
p1604
sVRemarkPYInitial
p1605
g45
sVContactFlag
p1606
I3
sVUin
p1607
I0
sVNickName
p1608
V\u5f00\u5c01\u7f51
p1609
sVAppAccountFlag
p1610
I0
sVVerifyFlag
p1611
I24
sVRemarkPYQuanPin
p1612
g45
sVHeadImgUrl
p1613
V/cgi-bin/mmwebwx-bin/webwxgeticon?seq=671340710&username=@168aeea3d1000c6625fc37019b416d9d&skey=@crypt_106cd448_154857d44c7c37d63dea93a129b58f17
p1614
sVKeyWord
p1615
Vgh_
p1616
sVProvince
p1617
V\u6cb3\u5357
p1618
sVPYInitial
p1619
VKFW
p1620
sVRemarkName
p1621
g45
sVStarFriend
p1622
I0
sVSex
p1623
I0
sVIsOwner
p1624
I0
sVHideInputBarFlag
p1625
I0
sVChatRoomId
p1626
I0
sVEncryChatRoomId
p1627
g45
sVAttrStatus
p1628
I0
sVStatues
p1629
I0
stp1630
Rp1631
I1
bag27
(g212
g32
(dp1632
VUserName
p1633
V@ab5a92784aea8d7d9a03f994b24372a3
p1634
sVCity
p1635
V\u5e7f\u5dde
p1636
sVSnsFlag
p1637
I0
sVDisplayName
p1638
g45
sVUniFriend
p1639
I0
sVMemberCount
p1640
I0
sVOwnerUin
p1641
I0
sVMemberList
p1642
g43
sVAlias
p1643
g45
sVPYQuanPin
p1644
Vzuzuche
p1645
sVSignature
p1646
V\u79df\u79df\u8f66\u662f\u5168\u7403\u9886\u5148\u7684\u5883\u5916\u81ea\u9a7e\u6e38\u7efc\u5408\u670d\u52a1\u5e73\u53f0\uff0c\u53ef\u5728\u7ebf\u9884\u8ba2\u8fd1200\u4e2a\u56fd\u5bb6\u7684\u79df\u8f66\u670d\u52a1\u53ca\u666f\u70b9\u95e8\u7968\uff0c\u63d0\u4f9b7x24\u5c0f\u65f6\u7684\u4e2d\u82f1\u6587\u5ba2\u670d\uff0c\u8fd1100\u56fd\u8d8580\u4e07\u5b57\u7684\u81ea\u9a7e\u653b\u7565\u5e72\u8d27\uff0c\u66f4\u6709\u6bcf\u5468\u56fa\u5b9a\u66f4\u65b0\u7cbe\u9009\u65c5\u6e38\u8d44\u8baf\u3001\u4e13\u5c5e\u4f18\u60e0\u7b49\u3002
p1647
sVRemarkPYInitial
p1648
g45
sVContactFlag
p1649
I3
sVUin
p1650
I0
sVNickName
p1651
V\u79df\u79df\u8f66
p1652
sVAppAccountFlag
p1653
I0
sVVerifyFlag
p1654
I24
sVRemarkPYQuanPin
p1655
g45
sVHeadImgUrl
p1656
V/cgi-bin/mmwebwx-bin/webwxgeticon?seq=671340755&username=@ab5a92784aea8d7d9a03f994b24372a3&skey=@crypt_106cd448_154857d44c7c37d63dea93a129b58f17
p1657
sVKeyWord
p1658
Vgh_
p1659
sVProvince
p1660
V\u5e7f\u4e1c
p1661
sVPYInitial
p1662
VZZC
p1663
sVRemarkName
p1664
g45
sVStarFriend
p1665
I0
sVSex
p1666
I0
sVIsOwner
p1667
I0
sVHideInputBarFlag
p1668
I0
sVChatRoomId
p1669
I0
sVEncryChatRoomId
p1670
g45
sVAttrStatus
p1671
I0
sVStatues
p1672
I0
stp1673
Rp1674
I1
bag27
(g212
g32
(dp1675
VUserName
p1676
V@bb85c3b3c510e7c5d6574a0d9fb542a0
p1677
sVCity
p1678
V\u743c\u4e2d
p1679
sVSnsFlag
p1680
I0
sVDisplayName
p1681
g45
sVUniFriend
p1682
I0
sVMemberCount
p1683
I0
sVOwnerUin
p1684
I0
sVMemberList
p1685
g43
sVAlias
p1686
g45
sVPYQuanPin
p1687
Vqiongzhongxuanchuan
p1688
sVSignature
p1689
V\u4eba\u6c11\u7684\u5e73\u53f0\uff0c\u743c\u4e2d\u7684\u7a97\u53e3\u3002
p1690
sVRemarkPYInitial
p1691
g45
sVContactFlag
p1692
I3
sVUin
p1693
I0
sVNickName
p1694
V\u743c\u4e2d\u5ba3\u4f20
p1695
sVAppAccountFlag
p1696
I0
sVVerifyFlag
p1697
I24
sVRemarkPYQuanPin
p1698
g45
sVHeadImgUrl
p1699
V/cgi-bin/mmwebwx-bin/webwxgeticon?seq=671340796&username=@bb85c3b3c510e7c5d6574a0d9fb542a0&skey=@crypt_106cd448_154857d44c7c37d63dea93a129b58f17
p1700
sVKeyWord
p1701
Vgh_
p1702
sVProvince
p1703
V\u6d77\u5357
p1704
sVPYInitial
p1705
VQZXC
p1706
sVRemarkName
p1707
g45
sVStarFriend
p1708
I0
sVSex
p1709
I0
sVIsOwner
p1710
I0
sVHideInputBarFlag
p1711
I0
sVChatRoomId
p1712
I0
sVEncryChatRoomId
p1713
g45
sVAttrStatus
p1714
I0
sVStatues
p1715
I0
stp1716
Rp1717
I1
bag27
(g212
g32
(dp1718
VUserName
p1719
V@f65654d70705c0c87634dd5672c23ea6
p1720
sVCity
p1721
V\u961c\u9633
p1722
sVSnsFlag
p1723
I0
sVDisplayName
p1724
g45
sVUniFriend
p1725
I0
sVMemberCount
p1726
I0
sVOwnerUin
p1727
I0
sVMemberList
p1728
g43
sVAlias
p1729
g45
sVPYQuanPin
p1730
Vjieshoushidiyixiaoxue
p1731
sVSignature
p1732
V\u5b9e\u73b0\u5b66\u6821\u3001\u5bb6\u957f\u3001\u8001\u5e08\u4e09\u4f4d\u4e00\u4f53\u7684\u4e92\u52a8\u5e73\u53f0\uff0c\u642d\u5efa\u8d77\u4e00\u5ea7\u5bb6\u957f\u548c\u5b66\u6821\u6c9f\u901a\u7684\u6865\u6881\u3002
p1733
sVRemarkPYInitial
p1734
g45
sVContactFlag
p1735
I3
sVUin
p1736
I0
sVNickName
p1737
V\u754c\u9996\u5e02\u7b2c\u4e00\u5c0f\u5b66
p1738
sVAppAccountFlag
p1739
I0
sVVerifyFlag
p1740
I24
sVRemarkPYQuanPin
p1741
g45
sVHeadImgUrl
p1742
V/cgi-bin/mmwebwx-bin/webwxgeticon?seq=671340836&username=@f65654d70705c0c87634dd5672c23ea6&skey=@crypt_106cd448_154857d44c7c37d63dea93a129b58f17
p1743
sVKeyWord
p1744
Vgh_
p1745
sVProvince
p1746
V\u5b89\u5fbd
p1747
sVPYInitial
p1748
VJSSDYXX
p1749
sVRemarkName
p1750
g45
sVStarFriend
p1751
I0
sVSex
p1752
I0
sVIsOwner
p1753
I0
sVHideInputBarFlag
p1754
I0
sVChatRoomId
p1755
I0
sVEncryChatRoomId
p1756
g45
sVAttrStatus
p1757
I0
sVStatues
p1758
I0
stp1759
Rp1760
I1
bag27
(g212
g32
(dp1761
VUserName
p1762
V@d197f4c8a6155561596759031ad521aa
p1763
sVCity
p1764
V\u897f\u5b81
p1765
sVSnsFlag
p1766
I0
sVDisplayName
p1767
g45
sVUniFriend
p1768
I0
sVMemberCount
p1769
I0
sVOwnerUin
p1770
I0
sVMemberList
p1771
g43
sVAlias
p1772
g45
sVPYQuanPin
p1773
Vdatongnvsheng
p1774
sVSignature
p1775
V\u642d\u5efa\u66f4\u52a0\u5feb\u6377\u65b9\u4fbf\u7684\u6c9f\u901a\u5e73\u53f0\uff0c\u8ba9\u5987\u5973\u5de5\u4f5c\u66f4\u52a0\u8d34\u8fd1\u7fa4\u4f17\u3001\u8d34\u8fd1\u5987\u5973\u3001\u8d34\u8fd1\u6c11\u751f\uff1b\u53ca\u65f6\u4e86\u89e3\u5e7f\u5927\u5987\u5973\u5fc3\u58f0\uff0c\u53d1\u51fa\u5987\u5973\u58f0\u97f3\u3002
p1776
sVRemarkPYInitial
p1777
g45
sVContactFlag
p1778
I3
sVUin
p1779
I0
sVNickName
p1780
V\u5927\u901a\u5973\u58f0
p1781
sVAppAccountFlag
p1782
I0
sVVerifyFlag
p1783
I24
sVRemarkPYQuanPin
p1784
g45
sVHeadImgUrl
p1785
V/cgi-bin/mmwebwx-bin/webwxgeticon?seq=671340867&username=@d197f4c8a6155561596759031ad521aa&skey=@crypt_106cd448_154857d44c7c37d63dea93a129b58f17
p1786
sVKeyWord
p1787
Vgh_
p1788
sVProvince
p1789
V\u9752\u6d77
p1790
sVPYInitial
p1791
VDTNS
p1792
sVRemarkName
p1793
g45
sVStarFriend
p1794
I0
sVSex
p1795
I0
sVIsOwner
p1796
I0
sVHideInputBarFlag
p1797
I0
sVChatRoomId
p1798
I0
sVEncryChatRoomId
p1799
g45
sVAttrStatus
p1800
I0
sVStatues
p1801
I0
stp1802
Rp1803
I1
bag27
(g212
g32
(dp1804
VUserName
p1805
V@3e20f97090ce4b3978a581e198053d86
p1806
sVCity
p1807
V\u6c88\u9633
p1808
sVSnsFlag
p1809
I0
sVDisplayName
p1810
g45
sVUniFriend
p1811
I0
sVMemberCount
p1812
I0
sVOwnerUin
p1813
I0
sVMemberList
p1814
g43
sVAlias
p1815
g45
sVPYQuanPin
p1816
Vshenyangshixiaofeizhexiehui
p1817
sVSignature
p1818
V\u5ba3\u4f20\u6d88\u8d39\u7ef4\u6743\u6cd5\u5f8b\u6cd5\u89c4\u3001\u63d0\u4f9b\u6d88\u8d39\u77e5\u8bc6\u3001\u53d1\u5e03\u6d88\u8d39\u9884\u8b66\u4fe1\u606f\u3001\u516c\u5e03\u6bd4\u8f83\u8bd5\u9a8c\u548c\u76d1\u7763\u8c03\u67e5\u7ed3\u679c\u3001\u670d\u52a1\u6d88\u8d39\u7ef4\u6743\u3002
p1819
sVRemarkPYInitial
p1820
g45
sVContactFlag
p1821
I3
sVUin
p1822
I0
sVNickName
p1823
V\u6c88\u9633\u5e02\u6d88\u8d39\u8005\u534f\u4f1a
p1824
sVAppAccountFlag
p1825
I0
sVVerifyFlag
p1826
I24
sVRemarkPYQuanPin
p1827
g45
sVHeadImgUrl
p1828
V/cgi-bin/mmwebwx-bin/webwxgeticon?seq=671340963&username=@3e20f97090ce4b3978a581e198053d86&skey=@crypt_106cd448_154857d44c7c37d63dea93a129b58f17
p1829
sVKeyWord
p1830
Vgh_
p1831
sVProvince
p1832
V\u8fbd\u5b81
p1833
sVPYInitial
p1834
VSYSXFZXH
p1835
sVRemarkName
p1836
g45
sVStarFriend
p1837
I0
sVSex
p1838
I0
sVIsOwner
p1839
I0
sVHideInputBarFlag
p1840
I0
sVChatRoomId
p1841
I0
sVEncryChatRoomId
p1842
g45
sVAttrStatus
p1843
I0
sVStatues
p1844
I0
stp1845
Rp1846
I1
bag27
(g212
g32
(dp1847
VUserName
p1848
V@c1be5c512b55584caf62760a61667651
p1849
sVCity
p1850
V\u6d1b\u9633
p1851
sVSnsFlag
p1852
I0
sVDisplayName
p1853
g45
sVUniFriend
p1854
I0
sVMemberCount
p1855
I0
sVOwnerUin
p1856
I0
sVMemberList
p1857
g43
sVAlias
p1858
g45
sVPYQuanPin
p1859
Vmengjinnongshangyinxing
p1860
sVSignature
p1861
V\u6cb3\u5357\u5b5f\u6d25\u519c\u6751\u5546\u4e1a\u94f6\u884c\u80a1\u4efd\u6709\u9650\u516c\u53f8\uff08\u7b80\u79f0\uff1a\u5b5f\u6d25\u519c\u5546\u94f6\u884c\uff09\u662f\u7ecf\u6cb3\u5357\u94f6\u76d1\u5c40\u6279\u51c6\u6210\u7acb\u7684\u80a1\u4efd\u5236\u94f6\u884c\uff0c\u662f\u7531\u5b5f\u6d25\u53bf\u519c\u6751\u4fe1\u7528\u793e\u6539\u5236\u800c\u6765\uff0c\u662f\u60a8\u8eab\u8fb9\u503c\u5f97\u4fe1\u8d56\u7684\u91d1\u878d\u4f19\u4f34\uff0c\u4e3a\u60a8\u63d0\u4f9b\u5b89\u5168\u3001\u65b9\u4fbf\u3001\u9ad8\u6548\u7684\u91d1\u878d\u670d\u52a1\u3002
p1862
sVRemarkPYInitial
p1863
g45
sVContactFlag
p1864
I3
sVUin
p1865
I0
sVNickName
p1866
V\u5b5f\u6d25\u519c\u5546\u94f6\u884c
p1867
sVAppAccountFlag
p1868
I0
sVVerifyFlag
p1869
I24
sVRemarkPYQuanPin
p1870
g45
sVHeadImgUrl
p1871
V/cgi-bin/mmwebwx-bin/webwxgeticon?seq=671340974&username=@c1be5c512b55584caf62760a61667651&skey=@crypt_106cd448_154857d44c7c37d63dea93a129b58f17
p1872
sVKeyWord
p1873
Vgh_
p1874
sVProvince
p1875
V\u6cb3\u5357
p1876
sVPYInitial
p1877
VMJNSYX
p1878
sVRemarkName
p1879
g45
sVStarFriend
p1880
I0
sVSex
p1881
I0
sVIsOwner
p1882
I0
sVHideInputBarFlag
p1883
I0
sVChatRoomId
p1884
I0
sVEncryChatRoomId
p1885
g45
sVAttrStatus
p1886
I0
sVStatues
p1887
I0
stp1888
Rp1889
I1
bag27
(g212
g32
(dp1890
VUserName
p1891
V@8a7a462d053b82d8f6656d0771adc09f
p1892
sVCity
p1893
V\u6df1\u5733
p1894
sVSnsFlag
p1895
I0
sVDisplayName
p1896
g45
sVUniFriend
p1897
I0
sVMemberCount
p1898
I0
sVOwnerUin
p1899
I0
sVMemberList
p1900
g43
sVAlias
p1901
g45
sVPYQuanPin
p1902
Vjiahuazhiyejiaoyu
p1903
sVSignature
p1904
V\u5609\u534e\u6559\u80b2\u96c6\u56e2\uff08KEG\uff09\u59cb\u521b\u4e8e2006\u5e74\uff0c\u603b\u90e8\u5728\u52a0\u62ff\u5927\u6e29\u54e5\u534e\uff0c\u5728\u6df1\u5733\u3001\u5e7f\u5dde\u3001\u4e1c\u839e\u7b49\u5730\u62e5\u6709\u591a\u5bb6\u804c\u4e1a\u6559\u80b2\u673a\u6784\u548c\u8f6f\u4ef6\u516c\u53f8\uff0c\u81f4\u529b\u4e8e\u793e\u4f1a\u7d27\u7f3a\u578b\u4eba\u624d\u7684\u57f9\u517b\u4ee5\u53ca\u8f6f\u4ef6\u5916\u5305\u670d\u52a1\uff0c\u662f\u5317\u5927\u9752\u9e1f\u3001\u8bfe\u5de5\u573a\u3001\u6df1\u5733\u5927\u5b66\u8d44\u6df1\u5408\u4f5c\u4f19\u4f34\u3002
p1905
sVRemarkPYInitial
p1906
g45
sVContactFlag
p1907
I3
sVUin
p1908
I0
sVNickName
p1909
V\u5609\u534e\u804c\u4e1a\u6559\u80b2
p1910
sVAppAccountFlag
p1911
I0
sVVerifyFlag
p1912
I24
sVRemarkPYQuanPin
p1913
g45
sVHeadImgUrl
p1914
V/cgi-bin/mmwebwx-bin/webwxgeticon?seq=671340979&username=@8a7a462d053b82d8f6656d0771adc09f&skey=@crypt_106cd448_154857d44c7c37d63dea93a129b58f17
p1915
sVKeyWord
p1916
Vgh_
p1917
sVProvince
p1918
V\u5e7f\u4e1c
p1919
sVPYInitial
p1920
VJHZYJY
p1921
sVRemarkName
p1922
g45
sVStarFriend
p1923
I0
sVSex
p1924
I0
sVIsOwner
p1925
I0
sVHideInputBarFlag
p1926
I0
sVChatRoomId
p1927
I0
sVEncryChatRoomId
p1928
g45
sVAttrStatus
p1929
I0
sVStatues
p1930
I0
stp1931
Rp1932
I1
bag27
(g212
g32
(dp1933
VUserName
p1934
V@e9904a85fc7029f98cf1dec0d3e5edb5
p1935
sVCity
p1936
V\u6c60\u5dde
p1937
sVSnsFlag
p1938
I0
sVDisplayName
p1939
g45
sVUniFriend
p1940
I0
sVMemberCount
p1941
I0
sVOwnerUin
p1942
I0
sVMemberList
p1943
g43
sVAlias
p1944
g45
sVPYQuanPin
p1945
Vsixinxiangyu
p1946
sVSignature
p1947
V\u9999\u9685\u9547\uff0c\u5b89\u5fbd\u7701\u4e1c\u81f3\u53bf\u8f96\u9547\uff0c\u4e1c\u81f3\u8001\u56db\u9547\u4e4b\u4e00\uff0c\u4f4d\u4e8e\u4e1c\u81f3\u53bf\u897f\u5357\u90e8\u3002\u6709\u201c\u7696\u6c5f\u5357\u5cb8\u7b2c\u4e00\u9547\u201d\u4e4b\u79f0\uff0c\u662f\u5b89\u5fbd\u7701\u7684\u5316\u5de5\u4e1a\u4e2d\u5fc3\u57fa\u5730\u3002
p1948
sVRemarkPYInitial
p1949
g45
sVContactFlag
p1950
I3
sVUin
p1951
I0
sVNickName
p1952
V\u56db\u65b0\u9999\u9685
p1953
sVAppAccountFlag
p1954
I0
sVVerifyFlag
p1955
I24
sVRemarkPYQuanPin
p1956
g45
sVHeadImgUrl
p1957
V/cgi-bin/mmwebwx-bin/webwxgeticon?seq=671341020&username=@e9904a85fc7029f98cf1dec0d3e5edb5&skey=@crypt_106cd448_154857d44c7c37d63dea93a129b58f17
p1958
sVKeyWord
p1959
Vgh_
p1960
sVProvince
p1961
V\u5b89\u5fbd
p1962
sVPYInitial
p1963
VSXXY
p1964
sVRemarkName
p1965
g45
sVStarFriend
p1966
I0
sVSex
p1967
I0
sVIsOwner
p1968
I0
sVHideInputBarFlag
p1969
I0
sVChatRoomId
p1970
I0
sVEncryChatRoomId
p1971
g45
sVAttrStatus
p1972
I0
sVStatues
p1973
I0
stp1974
Rp1975
I1
bag27
(g212
g32
(dp1976
VUserName
p1977
V@f6093105628db78b2cadaaf6c0750679
p1978
sVCity
p1979
V\u90af\u90f8
p1980
sVSnsFlag
p1981
I0
sVDisplayName
p1982
g45
sVUniFriend
p1983
I0
sVMemberCount
p1984
I0
sVOwnerUin
p1985
I0
sVMemberList
p1986
g43
sVAlias
p1987
g45
sVPYQuanPin
p1988
Vxinwuan
p1989
sVSignature
p1990
V\u4e2d\u5171\u6b66\u5b89\u5e02\u59d4\u5ba3\u4f20\u90e8\u6307\u5b9a\u6743\u5a01\u4fe1\u606f\u53d1\u5e03\u5e73\u53f0
p1991
sVRemarkPYInitial
p1992
g45
sVContactFlag
p1993
I3
sVUin
p1994
I0
sVNickName
p1995
V\u65b0\u6b66\u5b89
p1996
sVAppAccountFlag
p1997
I0
sVVerifyFlag
p1998
I24
sVRemarkPYQuanPin
p1999
g45
sVHeadImgUrl
p2000
V/cgi-bin/mmwebwx-bin/webwxgeticon?seq=671341033&username=@f6093105628db78b2cadaaf6c0750679&skey=@crypt_106cd448_154857d44c7c37d63dea93a129b58f17
p2001
sVKeyWord
p2002
Vgh_
p2003
sVProvince
p2004
V\u6cb3\u5317
p2005
sVPYInitial
p2006
VXWA
p2007
sVRemarkName
p2008
g45
sVStarFriend
p2009
I0
sVSex
p2010
I0
sVIsOwner
p2011
I0
sVHideInputBarFlag
p2012
I0
sVChatRoomId
p2013
I0
sVEncryChatRoomId
p2014
g45
sVAttrStatus
p2015
I0
sVStatues
p2016
I0
stp2017
Rp2018
I1
bag27
(g212
g32
(dp2019
VUserName
p2020
V@3b146a7d25bfd7dfe524c0b3fde91d5a
p2021
sVCity
p2022
V\u4f5b\u5c71
p2023
sVSnsFlag
p2024
I0
sVDisplayName
p2025
g45
sVUniFriend
p2026
I0
sVMemberCount
p2027
I0
sVOwnerUin
p2028
I0
sVMemberList
p2029
g43
sVAlias
p2030
g45
sVPYQuanPin
p2031
Vweiyidingzhi
p2032
sVSignature
p2033
V\u2460\u514d\u8d39\u90013000\u5957\u88c5\u4fee\u6548\u679c\u56fe\uff0c\u6559\u4f60\u5b9e\u7528\u6269\u5bb9\u6280\u5de7\uff0c\u5c0f\u6237\u578b\u79d2\u589e20\u33a1 \u2461\u6bdb\u576f\u623f\u3001\u7cbe\u88c5\u623f\u3001\u65e7\u623f\u6539\u9020\u2026\u4e13\u4e1a\u8bbe\u8ba1\u5e08\u90fd\u53ef\u4ee5\u5e2e\u4f60\u3010\u514d\u8d39\u8bbe\u8ba1\u3011 \u2462\u6bcf\u5468\u798f\u5229\u9001\u4e0d\u505c\uff0c\u53c2\u4e0e\u6d3b\u52a8\u5373\u6709\u673a\u4f1a\u514d\u8d39\u9886\u53d6\u3002
p2034
sVRemarkPYInitial
p2035
g45
sVContactFlag
p2036
I3
sVUin
p2037
I0
sVNickName
p2038
V\u7ef4\u610f\u5b9a\u5236
p2039
sVAppAccountFlag
p2040
I0
sVVerifyFlag
p2041
I24
sVRemarkPYQuanPin
p2042
g45
sVHeadImgUrl
p2043
V/cgi-bin/mmwebwx-bin/webwxgeticon?seq=671341043&username=@3b146a7d25bfd7dfe524c0b3fde91d5a&skey=@crypt_106cd448_154857d44c7c37d63dea93a129b58f17
p2044
sVKeyWord
p2045
Vgh_
p2046
sVProvince
p2047
V\u5e7f\u4e1c
p2048
sVPYInitial
p2049
VWYDZ
p2050
sVRemarkName
p2051
g45
sVStarFriend
p2052
I0
sVSex
p2053
I0
sVIsOwner
p2054
I0
sVHideInputBarFlag
p2055
I0
sVChatRoomId
p2056
I0
sVEncryChatRoomId
p2057
g45
sVAttrStatus
p2058
I0
sVStatues
p2059
I0
stp2060
Rp2061
I1
bag27
(g212
g32
(dp2062
VUserName
p2063
V@314f2214aac1b513aa178d1b22eadeae
p2064
sVCity
p2065
V\u9526\u5dde
p2066
sVSnsFlag
p2067
I0
sVDisplayName
p2068
g45
sVUniFriend
p2069
I0
sVMemberCount
p2070
I0
sVOwnerUin
p2071
I0
sVMemberList
p2072
g43
sVAlias
p2073
g45
sVPYQuanPin
p2074
Vjinzhoufabu
p2075
sVSignature
p2076
V\u8ba9\u4e2d\u56fd\u611f\u77e5\u9526\u5dde\u7684\u811a\u6b65\uff0c\u8ba9\u4e16\u754c\u503e\u542c\u9526\u5dde\u7684\u58f0\u97f3\u2014\u2014\u9526\u5dde\u53d1\u5e03\uff0c\u671f\u5f85\u60a8\u7684\u5173\u6ce8\uff01
p2077
sVRemarkPYInitial
p2078
g45
sVContactFlag
p2079
I3
sVUin
p2080
I0
sVNickName
p2081
V\u9526\u5dde\u53d1\u5e03
p2082
sVAppAccountFlag
p2083
I0
sVVerifyFlag
p2084
I24
sVRemarkPYQuanPin
p2085
g45
sVHeadImgUrl
p2086
V/cgi-bin/mmwebwx-bin/webwxgeticon?seq=671341060&username=@314f2214aac1b513aa178d1b22eadeae&skey=@crypt_106cd448_154857d44c7c37d63dea93a129b58f17
p2087
sVKeyWord
p2088
Vgh_
p2089
sVProvince
p2090
V\u8fbd\u5b81
p2091
sVPYInitial
p2092
VJZFB
p2093
sVRemarkName
p2094
g45
sVStarFriend
p2095
I0
sVSex
p2096
I0
sVIsOwner
p2097
I0
sVHideInputBarFlag
p2098
I0
sVChatRoomId
p2099
I0
sVEncryChatRoomId
p2100
g45
sVAttrStatus
p2101
I0
sVStatues
p2102
I0
stp2103
Rp2104
I1
bag27
(g212
g32
(dp2105
VUserName
p2106
V@2488f801b3c83b1079c54725bed22d65
p2107
sVCity
p2108
V\u5927\u5e86
p2109
sVSnsFlag
p2110
I0
sVDisplayName
p2111
g45
sVUniFriend
p2112
I0
sVMemberCount
p2113
I0
sVOwnerUin
p2114
I0
sVMemberList
p2115
g43
sVAlias
p2116
g45
sVPYQuanPin
p2117
Vkunlunyinxingdaqingfenxingmenggongan
p2118
sVSignature
p2119
V\u94f6\u884c\u754c\u7684\u975e\u4e3b\u6d41\uff0c\u4e00\u672c\u6b63\u7ecf\u7684\u5c0f\u602a\u517d\u3002
p2120
sVRemarkPYInitial
p2121
g45
sVContactFlag
p2122
I3
sVUin
p2123
I0
sVNickName
p2124
V\u6606\u4ed1\u94f6\u884c\u5927\u5e86\u5206\u884c\u68a6\u5de5\u5382
p2125
sVAppAccountFlag
p2126
I0
sVVerifyFlag
p2127
I24
sVRemarkPYQuanPin
p2128
g45
sVHeadImgUrl
p2129
V/cgi-bin/mmwebwx-bin/webwxgeticon?seq=673690059&username=@2488f801b3c83b1079c54725bed22d65&skey=@crypt_106cd448_154857d44c7c37d63dea93a129b58f17
p2130
sVKeyWord
p2131
Vgh_
p2132
sVProvince
p2133
V\u9ed1\u9f99\u6c5f
p2134
sVPYInitial
p2135
VKLYXDQFXMGA
p2136
sVRemarkName
p2137
g45
sVStarFriend
p2138
I0
sVSex
p2139
I0
sVIsOwner
p2140
I0
sVHideInputBarFlag
p2141
I0
sVChatRoomId
p2142
I0
sVEncryChatRoomId
p2143
g45
sVAttrStatus
p2144
I0
sVStatues
p2145
I0
stp2146
Rp2147
I1
bag27
(g212
g32
(dp2148
VUserName
p2149
V@4133709e21309a08f707dc6ac2ce176e
p2150
sVCity
p2151
V\u957f\u5b81
p2152
sVSnsFlag
p2153
I0
sVDisplayName
p2154
g45
sVUniFriend
p2155
I0
sVMemberCount
p2156
I0
sVOwnerUin
p2157
I0
sVMemberList
p2158
g43
sVAlias
p2159
g45
sVPYQuanPin
p2160
Vpinduoduo
p2161
sVSignature
p2162
V3\u4ebf\u4eba\u90fd\u5728\u62fc\uff01
p2163
sVRemarkPYInitial
p2164
g45
sVContactFlag
p2165
I3
sVUin
p2166
I0
sVNickName
p2167
V\u62fc\u591a\u591a
p2168
sVAppAccountFlag
p2169
I0
sVVerifyFlag
p2170
I24
sVRemarkPYQuanPin
p2171
g45
sVHeadImgUrl
p2172
V/cgi-bin/mmwebwx-bin/webwxgeticon?seq=673690124&username=@4133709e21309a08f707dc6ac2ce176e&skey=@crypt_106cd448_154857d44c7c37d63dea93a129b58f17
p2173
sVKeyWord
p2174
Vgh_
p2175
sVProvince
p2176
V\u4e0a\u6d77
p2177
sVPYInitial
p2178
VPDD
p2179
sVRemarkName
p2180
g45
sVStarFriend
p2181
I0
sVSex
p2182
I0
sVIsOwner
p2183
I0
sVHideInputBarFlag
p2184
I0
sVChatRoomId
p2185
I0
sVEncryChatRoomId
p2186
g45
sVAttrStatus
p2187
I0
sVStatues
p2188
I0
stp2189
Rp2190
I1
bag27
(g212
g32
(dp2191
VUserName
p2192
V@024d3e79c8e78c0b519f59871bd1e56c
p2193
sVCity
p2194
V\u676d\u5dde
p2195
sVSnsFlag
p2196
I0
sVDisplayName
p2197
g45
sVUniFriend
p2198
I0
sVMemberCount
p2199
I0
sVOwnerUin
p2200
I0
sVMemberList
p2201
g43
sVAlias
p2202
g45
sVPYQuanPin
p2203
Vbeibeipintuan
p2204
sVSignature
p2205
V\u548c1\u4ebf\u5988\u5988\u4e00\u8d77\u62fc\u56e2\uff01
p2206
sVRemarkPYInitial
p2207
g45
sVContactFlag
p2208
I3
sVUin
p2209
I0
sVNickName
p2210
V\u8d1d\u8d1d\u62fc\u56e2
p2211
sVAppAccountFlag
p2212
I0
sVVerifyFlag
p2213
I24
sVRemarkPYQuanPin
p2214
g45
sVHeadImgUrl
p2215
V/cgi-bin/mmwebwx-bin/webwxgeticon?seq=673690219&username=@024d3e79c8e78c0b519f59871bd1e56c&skey=@crypt_106cd448_154857d44c7c37d63dea93a129b58f17
p2216
sVKeyWord
p2217
Vgh_
p2218
sVProvince
p2219
V\u6d59\u6c5f
p2220
sVPYInitial
p2221
VBBPT
p2222
sVRemarkName
p2223
g45
sVStarFriend
p2224
I0
sVSex
p2225
I0
sVIsOwner
p2226
I0
sVHideInputBarFlag
p2227
I0
sVChatRoomId
p2228
I0
sVEncryChatRoomId
p2229
g45
sVAttrStatus
p2230
I0
sVStatues
p2231
I0
stp2232
Rp2233
I1
bag27
(g212
g32
(dp2234
VUserName
p2235
V@97bec87ecf9e76de376138ef33ec54df
p2236
sVCity
p2237
V\u77f3\u5bb6\u5e84
p2238
sVSnsFlag
p2239
I0
sVDisplayName
p2240
g45
sVUniFriend
p2241
I0
sVMemberCount
p2242
I0
sVOwnerUin
p2243
I0
sVMemberList
p2244
g43
sVAlias
p2245
g45
sVPYQuanPin
p2246
VhebeiaojitongAudi
p2247
sVSignature
p2248
V \u6cb3\u5317\u5965\u5409\u901a\u5965\u8fea\u4e2d\u5fc3\u4e13\u8425\u5965\u8fea\u54c1\u724c\u8f7f\u8f66\u7684\u6574\u8f66\u9500\u552e\u3001\u7ef4\u4fee\u670d\u52a1\u548c\u5907\u4ef6\u4f9b\u5e94\u3002\u540c\u65f6\u63d0\u4f9b\u4e0e\u6c7d\u8f66\u76f8\u5173\u7684\u6d88\u8d39\u4fe1\u8d37\u3001\u4fdd\u9669\u3001\u88c5\u9970\u3001\u6551\u63f4\u3001\u4ff1\u4e50\u90e8\u7b49\u5168\u65b9\u4f4d\u6c7d\u8f66\u670d\u52a1\u3002
p2249
sVRemarkPYInitial
p2250
g45
sVContactFlag
p2251
I3
sVUin
p2252
I0
sVNickName
p2253
V\u6cb3\u5317\u5965\u5409\u901aAudi
p2254
sVAppAccountFlag
p2255
I0
sVVerifyFlag
p2256
I24
sVRemarkPYQuanPin
p2257
g45
sVHeadImgUrl
p2258
V/cgi-bin/mmwebwx-bin/webwxgeticon?seq=673690254&username=@97bec87ecf9e76de376138ef33ec54df&skey=@crypt_106cd448_154857d44c7c37d63dea93a129b58f17
p2259
sVKeyWord
p2260
Vgh_
p2261
sVProvince
p2262
V\u6cb3\u5317
p2263
sVPYInitial
p2264
VHBAJTAUDI
p2265
sVRemarkName
p2266
g45
sVStarFriend
p2267
I0
sVSex
p2268
I0
sVIsOwner
p2269
I0
sVHideInputBarFlag
p2270
I0
sVChatRoomId
p2271
I0
sVEncryChatRoomId
p2272
g45
sVAttrStatus
p2273
I0
sVStatues
p2274
I0
stp2275
Rp2276
I1
bag27
(g212
g32
(dp2277
VUserName
p2278
V@a99bc404af3b01d13f4a738e21b57348
p2279
sVCity
p2280
V\u671d\u9633
p2281
sVSnsFlag
p2282
I0
sVDisplayName
p2283
g45
sVUniFriend
p2284
I0
sVMemberCount
p2285
I0
sVOwnerUin
p2286
I0
sVMemberList
p2287
g43
sVAlias
p2288
g45
sVPYQuanPin
p2289
Vwoyaopufawang
p2290
sVSignature
p2291
V\u4e3a\u5e7f\u5927\u5e08\u751f\u548c\u5bb6\u957f\u63d0\u4f9b\u4e13\u4e1a\u7684\u9752\u5c11\u5e74\u6cd5\u6cbb\u6559\u80b2\u5ba3\u4f20\uff0c\u8ba9\u5168\u793e\u4f1a\u66f4\u597d\u7684\u6811\u7acb\u8d77\u6cd5\u6cbb\u610f\u8bc6\uff0c\u57f9\u517b\u5168\u4f53\u516c\u6c11\u7684\u6cd5\u6cbb\u7cbe\u795e\uff01
p2292
sVRemarkPYInitial
p2293
g45
sVContactFlag
p2294
I3
sVUin
p2295
I0
sVNickName
p2296
V\u6211\u8981\u666e\u6cd5\u7f51
p2297
sVAppAccountFlag
p2298
I0
sVVerifyFlag
p2299
I24
sVRemarkPYQuanPin
p2300
g45
sVHeadImgUrl
p2301
V/cgi-bin/mmwebwx-bin/webwxgeticon?seq=673690270&username=@a99bc404af3b01d13f4a738e21b57348&skey=@crypt_106cd448_154857d44c7c37d63dea93a129b58f17
p2302
sVKeyWord
p2303
Vgh_
p2304
sVProvince
p2305
V\u5317\u4eac
p2306
sVPYInitial
p2307
VWYPFW
p2308
sVRemarkName
p2309
g45
sVStarFriend
p2310
I0
sVSex
p2311
I0
sVIsOwner
p2312
I0
sVHideInputBarFlag
p2313
I0
sVChatRoomId
p2314
I0
sVEncryChatRoomId
p2315
g45
sVAttrStatus
p2316
I0
sVStatues
p2317
I0
stp2318
Rp2319
I1
batp2320
Rp2321
I1
bssS'loginInfo'
p2322
(dp2323
S'SyncKey'
p2324
(dp2325
VCount
p2326
I7
sVList
p2327
(lp2328
(dp2329
VVal
p2330
I673690331
sVKey
p2331
I1
sa(dp2332
VVal
p2333
I673690458
sVKey
p2334
I2
sa(dp2335
VVal
p2336
I673690270
sVKey
p2337
I3
sa(dp2338
VVal
p2339
I673690033
sVKey
p2340
I11
sa(dp2341
VVal
p2342
I1521167379
sVKey
p2343
I201
sa(dp2344
VVal
p2345
I1521157442
sVKey
p2346
I1000
sa(dp2347
VVal
p2348
I1521157514
sVKey
p2349
I1001
sassS'syncUrl'
p2350
S'https://webpush.wx.qq.com/cgi-bin/mmwebwx-bin'
p2351
sS'skey'
p2352
V@crypt_106cd448_154857d44c7c37d63dea93a129b58f17
p2353
sS'wxuin'
p2354
V2384572421
p2355
sS'synckey'
p2356
S'1_673690331|2_673690458|3_673690270|11_673690033|201_1521167379|1000_1521157442|1001_1521157514'
p2357
sS'url'
p2358
Vhttps://wx.qq.com/cgi-bin/mmwebwx-bin
p2359
sS'pass_ticket'
p2360
VqwtFT0uYPWDespCxEcBoO%2BZmbV832opjtlf7XzQss%2B%2FlPVGo7QtnmWtqe1uR%2Bd5T
p2361
sS'deviceid'
p2362
S'e797180557565684'
p2363
sS'wxsid'
p2364
Vs6JcW9StwcdQl7C7
p2365
sS'InviteStartCount'
p2366
I40
sS'fileUrl'
p2367
S'https://file.wx.qq.com/cgi-bin/mmwebwx-bin'
p2368
sS'BaseRequest'
p2369
(dp2370
g47
g2355
sS'Skey'
p2371
g2353
sS'DeviceID'
p2372
g2361
sS'Sid'
p2373
g2365
ssS'User'
p2374
g27
(g31
g32
(dp2375
g34
g24
sg35
g36
sg37
g36
sg38
I0
sg40
g43
sg44
g45
sg46
g45
sg71
I2
sg48
I0
sg49
I0
sg50
g36
sg51
g36
sg52
g45
sg53
g45
sg54
I0
sg55
I0
sg56
I1
sg57
g36
sg58
I0
sg61
I0
sg59
I17
sg60
I0
sg39
I0
sg62
g36
sg63
g64
sg65
I0
sg66
g67
sg68
g45
sg69
g70
sg47
I2384572421
sg72
I0
sg73
I0
stp2376
Rp2377
I1
bss.